
/home/malte/project/private/pico-examples/pio/pio_blink/pio_blink.elf:     file format elf32-littleriscv

Sections:
Idx Name          Size      VMA       LMA       File off  Algn
  0 .text         000067f8  20000000  20000000  00001000  2**6
                  CONTENTS, ALLOC, LOAD, READONLY, CODE
  1 .rodata       0000063c  200067f8  200067f8  000077f8  2**3
                  CONTENTS, ALLOC, LOAD, READONLY, DATA
  2 .binary_info  00000024  20006e34  20006e34  00007e34  2**2
                  CONTENTS, ALLOC, LOAD, READONLY, DATA
  3 .data         000000b8  20006e58  20006e58  00007e58  2**2
                  CONTENTS, ALLOC, LOAD, DATA
  4 .tdata        00000000  20006f10  20006f10  00007f10  2**0
                  CONTENTS, ALLOC, LOAD, DATA, THREAD_LOCAL
  5 .uninitialized_data 00000000  20006f10  20006f10  00007f10  2**0
                  CONTENTS
  6 .tbss         00000000  20006f10  20006f10  00000000  2**0
                  ALLOC, THREAD_LOCAL
  7 .bss          00000220  20006f10  20006f10  00007f10  2**3
                  ALLOC
  8 .heap         00000800  20007130  20007130  00007f10  2**2
                  CONTENTS, READONLY
  9 .scratch_x    00000000  20080000  20080000  00008710  2**0
                  CONTENTS
 10 .scratch_y    00000000  20081000  20081000  00008710  2**0
                  CONTENTS
 11 .stack_dummy  00000800  20081000  20081000  00008720  2**5
                  CONTENTS, READONLY
 12 .debug_info   00022f46  00000000  00000000  00008f20  2**0
                  CONTENTS, READONLY, DEBUGGING, OCTETS
 13 .debug_abbrev 00006bab  00000000  00000000  0002be66  2**0
                  CONTENTS, READONLY, DEBUGGING, OCTETS
 14 .debug_loclists 00017e7e  00000000  00000000  00032a11  2**0
                  CONTENTS, READONLY, DEBUGGING, OCTETS
 15 .debug_aranges 00000dc8  00000000  00000000  0004a890  2**3
                  CONTENTS, READONLY, DEBUGGING, OCTETS
 16 .debug_rnglists 0000510f  00000000  00000000  0004b658  2**0
                  CONTENTS, READONLY, DEBUGGING, OCTETS
 17 .debug_line   0002b519  00000000  00000000  00050767  2**0
                  CONTENTS, READONLY, DEBUGGING, OCTETS
 18 .debug_str    0000559c  00000000  00000000  0007bc80  2**0
                  CONTENTS, READONLY, DEBUGGING, OCTETS
 19 .debug_line_str 0000218a  00000000  00000000  0008121c  2**0
                  CONTENTS, READONLY, DEBUGGING, OCTETS
 20 .comment      00000035  00000000  00000000  000833a6  2**0
                  CONTENTS, READONLY
 21 .riscv.attributes 0000006a  00000000  00000000  000833db  2**0
                  CONTENTS, READONLY
 22 .debug_frame  000027e8  00000000  00000000  00083448  2**2
                  CONTENTS, READONLY, DEBUGGING, OCTETS

/home/malte/project/private/pico-examples/pio/pio_blink/pio_blink.elf:     file format elf32-littleriscv


Disassembly of section .text:

20000000 <__VECTOR_TABLE>:
20000000:	1a00006f          	j	200001a0 <__default_isrs_start>
	...
2000000c:	1960006f          	j	200001a2 <isr_riscv_machine_soft_irq>
	...
2000001c:	1840006f          	j	200001a0 <__default_isrs_start>
	...

2000002c <isr_riscv_machine_external_irq>:
2000002c:	715d                	addi	sp,sp,-80
2000002e:	c006                	sw	ra,0(sp)
20000030:	c216                	sw	t0,4(sp)
20000032:	c41a                	sw	t1,8(sp)
20000034:	c61e                	sw	t2,12(sp)
20000036:	c82a                	sw	a0,16(sp)
20000038:	ca2e                	sw	a1,20(sp)
2000003a:	cc32                	sw	a2,24(sp)
2000003c:	ce36                	sw	a3,28(sp)
2000003e:	d03a                	sw	a4,32(sp)
20000040:	d23e                	sw	a5,36(sp)
20000042:	d442                	sw	a6,40(sp)
20000044:	d646                	sw	a7,44(sp)
20000046:	d872                	sw	t3,48(sp)
20000048:	da76                	sw	t4,52(sp)
2000004a:	dc7a                	sw	t5,56(sp)
2000004c:	de7e                	sw	t6,60(sp)
2000004e:	34102573          	csrr	a0,mepc
20000052:	300025f3          	csrr	a1,mstatus
20000056:	c0aa                	sw	a0,64(sp)
20000058:	c2ae                	sw	a1,68(sp)

2000005a <save_meicontext>:
2000005a:	be516673          	csrrsi	a2,0xbe5,2
2000005e:	c4b2                	sw	a2,72(sp)

20000060 <get_first_irq>:
20000060:	be40e573          	csrrsi	a0,0xbe4,1
20000064:	02054163          	bltz	a0,20000086 <no_more_irqs>

20000068 <dispatch_irq>:
20000068:	30046073          	csrsi	mstatus,8
2000006c:	200005b7          	lui	a1,0x20000
20000070:	95aa                	add	a1,a1,a0
20000072:	0d05a583          	lw	a1,208(a1) # 200000d0 <__soft_vector_table>
20000076:	000580e7          	jalr	a1
2000007a:	30047073          	csrci	mstatus,8

2000007e <get_next_irq>:
2000007e:	be40e573          	csrrsi	a0,0xbe4,1
20000082:	fe0553e3          	bgez	a0,20000068 <dispatch_irq>

20000086 <no_more_irqs>:
20000086:	4506                	lw	a0,64(sp)
20000088:	4596                	lw	a1,68(sp)
2000008a:	4626                	lw	a2,72(sp)
2000008c:	34151073          	csrw	mepc,a0
20000090:	30059073          	csrw	mstatus,a1
20000094:	be561073          	csrw	0xbe5,a2
20000098:	4082                	lw	ra,0(sp)
2000009a:	4292                	lw	t0,4(sp)
2000009c:	4322                	lw	t1,8(sp)
2000009e:	43b2                	lw	t2,12(sp)
200000a0:	45d2                	lw	a1,20(sp)
200000a2:	4662                	lw	a2,24(sp)
200000a4:	46f2                	lw	a3,28(sp)
200000a6:	5702                	lw	a4,32(sp)
200000a8:	5792                	lw	a5,36(sp)
200000aa:	5822                	lw	a6,40(sp)
200000ac:	58b2                	lw	a7,44(sp)
200000ae:	5e42                	lw	t3,48(sp)
200000b0:	5ed2                	lw	t4,52(sp)
200000b2:	5f62                	lw	t5,56(sp)
200000b4:	5ff2                	lw	t6,60(sp)

200000b6 <check_irq_before_exit>:
200000b6:	be402573          	csrr	a0,0xbe4
200000ba:	fa0550e3          	bgez	a0,2000005a <save_meicontext>
200000be:	4542                	lw	a0,16(sp)
200000c0:	6161                	addi	sp,sp,80
200000c2:	30200073          	mret
200000c6:	00000013          	nop
200000ca:	00000013          	nop
200000ce:	0001                	nop

200000d0 <__soft_vector_table>:
200000d0:	200001a4          	.word	0x200001a4
200000d4:	200001a4          	.word	0x200001a4
200000d8:	200001a4          	.word	0x200001a4
200000dc:	200001a4          	.word	0x200001a4
200000e0:	200001a4          	.word	0x200001a4
200000e4:	200001a4          	.word	0x200001a4
200000e8:	200001a4          	.word	0x200001a4
200000ec:	200001a4          	.word	0x200001a4
200000f0:	200001a4          	.word	0x200001a4
200000f4:	200001a4          	.word	0x200001a4
200000f8:	200001a4          	.word	0x200001a4
200000fc:	200001a4          	.word	0x200001a4
20000100:	200001a4          	.word	0x200001a4
20000104:	200001a4          	.word	0x200001a4
20000108:	200001a4          	.word	0x200001a4
2000010c:	200001a4          	.word	0x200001a4
20000110:	200001a4          	.word	0x200001a4
20000114:	200001a4          	.word	0x200001a4
20000118:	200001a4          	.word	0x200001a4
2000011c:	200001a4          	.word	0x200001a4
20000120:	200001a4          	.word	0x200001a4
20000124:	200001a4          	.word	0x200001a4
20000128:	200001a4          	.word	0x200001a4
2000012c:	200001a4          	.word	0x200001a4
20000130:	200001a4          	.word	0x200001a4
20000134:	200001a4          	.word	0x200001a4
20000138:	200001a4          	.word	0x200001a4
2000013c:	200001a4          	.word	0x200001a4
20000140:	200001a4          	.word	0x200001a4
20000144:	200001a4          	.word	0x200001a4
20000148:	200001a4          	.word	0x200001a4
2000014c:	200001a4          	.word	0x200001a4
20000150:	200001a4          	.word	0x200001a4
20000154:	200001a4          	.word	0x200001a4
20000158:	200001a4          	.word	0x200001a4
2000015c:	200001a4          	.word	0x200001a4
20000160:	200001a4          	.word	0x200001a4
20000164:	200001a4          	.word	0x200001a4
20000168:	200001a4          	.word	0x200001a4
2000016c:	200001a4          	.word	0x200001a4
20000170:	200001a4          	.word	0x200001a4
20000174:	200001a4          	.word	0x200001a4
20000178:	200001a4          	.word	0x200001a4
2000017c:	200001a4          	.word	0x200001a4
20000180:	200001a4          	.word	0x200001a4
20000184:	200001a4          	.word	0x200001a4
20000188:	200001a4          	.word	0x200001a4
2000018c:	200001a4          	.word	0x200001a4
20000190:	200001a4          	.word	0x200001a4
20000194:	200001a4          	.word	0x200001a4
20000198:	200001a4          	.word	0x200001a4
2000019c:	200001a4          	.word	0x200001a4

200001a0 <__default_isrs_start>:
200001a0:	9002                	ebreak

200001a2 <isr_riscv_machine_soft_irq>:
200001a2:	9002                	ebreak

200001a4 <__unhandled_user_irq>:
200001a4:	8109                	srli	a0,a0,0x2
200001a6:	9002                	ebreak

200001a8 <__default_isrs_end>:
	...

200001c0 <__bi_54>:
200001c0:	0006 5052 b3ab 5360 6908 2000               ..RP..`S.i. 

200001cc <__bi_42>:
200001cc:	0006 5052 1c86 0203 6924 2000               ..RP....$i. 

200001d8 <__bi_34>:
200001d8:	0006 5052 2254 9da2 6930 2000               ..RPT"..0i. 

200001e4 <binary_info_header>:
200001e4:	ebf2                	.insn	2, 0xebf2
200001e6:	7188                	.insn	2, 0x7188
200001e8:	6e34                	.insn	2, 0x6e34
200001ea:	2000                	.insn	2, 0x2000
200001ec:	6e58                	.insn	2, 0x6e58
200001ee:	2000                	.insn	2, 0x2000
200001f0:	0278                	addi	a4,sp,268
200001f2:	2000                	.insn	2, 0x2000
200001f4:	a390                	.insn	2, 0xa390
200001f6:	e71a                	.insn	2, 0xe71a

200001f8 <__binary_info_header_end>:
200001f8:	ffffded3          	.insn	4, 0xffffded3
200001fc:	0142                	slli	sp,sp,0x10
200001fe:	1101                	addi	sp,sp,-32
20000200:	0344                	addi	s1,sp,388
20000202:	0000                	unimp
20000204:	0222                	slli	tp,tp,0x8
20000206:	2000                	.insn	2, 0x2000
20000208:	2000                	.insn	2, 0x2000
2000020a:	2008                	.insn	2, 0x2008
2000020c:	00000203          	lb	tp,0(zero) # 0 <next_slot_number-0x5>
20000210:	0000                	unimp
20000212:	2000                	.insn	2, 0x2000
20000214:	06ff 0000 0000 0000 	.insn	10, 0x357900000000000006ff
2000021c:	3579 
2000021e:	ab12                	.insn	2, 0xab12

20000220 <__embedded_block_end>:
20000220:	a009                	j	20000222 <_reset_handler>

20000222 <_reset_handler>:
20000222:	00007197          	auipc	gp,0x7
20000226:	6e218193          	addi	gp,gp,1762 # 20007904 <__global_pointer$>
2000022a:	00082117          	auipc	sp,0x82
2000022e:	dd610113          	addi	sp,sp,-554 # 20082000 <__StackTop>
20000232:	00000517          	auipc	a0,0x0
20000236:	dcf50513          	addi	a0,a0,-561 # 20000001 <__VECTOR_TABLE+0x1>
2000023a:	30551073          	csrw	mtvec,a0
2000023e:	f1402573          	csrr	a0,mhartid
20000242:	e125                	bnez	a0,200002a2 <reenter_bootrom>
20000244:	00007597          	auipc	a1,0x7
20000248:	ccc58593          	addi	a1,a1,-820 # 20006f10 <default_alarm_pool_entries>
2000024c:	82c18613          	addi	a2,gp,-2004 # 20007130 <__bss_end__>
20000250:	a021                	j	20000258 <bss_fill_test>

20000252 <bss_fill_loop>:
20000252:	0005a023          	sw	zero,0(a1)
20000256:	0591                	addi	a1,a1,4

20000258 <bss_fill_test>:
20000258:	fec59de3          	bne	a1,a2,20000252 <bss_fill_loop>

2000025c <platform_entry>:
2000025c:	188030ef          	jal	200033e4 <runtime_init>
20000260:	24b1                	jal	200004ac <main>
20000262:	17c030ef          	jal	200033de <exit>
20000266:	9002                	ebreak
20000268:	bffd                	j	20000266 <platform_entry+0xa>

2000026a <data_cpy_loop>:
2000026a:	4188                	lw	a0,0(a1)
2000026c:	c208                	sw	a0,0(a2)
2000026e:	0591                	addi	a1,a1,4
20000270:	0611                	addi	a2,a2,4

20000272 <data_cpy>:
20000272:	fed66ce3          	bltu	a2,a3,2000026a <data_cpy_loop>
20000276:	8082                	ret

20000278 <data_cpy_table>:
20000278:	20006e58          	.word	0x20006e58
2000027c:	20006e58          	.word	0x20006e58
20000280:	20006f10          	.word	0x20006f10
20000284:	20080000          	.word	0x20080000
20000288:	20080000          	.word	0x20080000
2000028c:	20080000          	.word	0x20080000
20000290:	20081000          	.word	0x20081000
20000294:	20081000          	.word	0x20081000
20000298:	20081000          	.word	0x20081000
2000029c:	00000000          	.word	0x00000000
200002a0:	8082                	ret

200002a2 <reenter_bootrom>:
200002a2:	6521                	lui	a0,0x8
200002a4:	dfc50513          	addi	a0,a0,-516 # 7dfc <HeapSize+0x75fc>
200002a8:	8502                	jr	a0
	...

200002ac <mutex_enter_block_until>:
200002ac:	1101                	addi	sp,sp,-32
200002ae:	d00007b7          	lui	a5,0xd0000
200002b2:	cc22                	sw	s0,24(sp)
200002b4:	ca26                	sw	s1,20(sp)
200002b6:	c84a                	sw	s2,16(sp)
200002b8:	c64e                	sw	s3,12(sp)
200002ba:	ce06                	sw	ra,28(sp)
200002bc:	0007a983          	lw	s3,0(a5) # d0000000 <__StackTop+0xaff7e000>
200002c0:	842a                	mv	s0,a0
200002c2:	892e                	mv	s2,a1
200002c4:	84b2                	mv	s1,a2
200002c6:	a821                	j	200002de <mutex_enter_block_until+0x32>
200002c8:	0330000f          	fence	rw,rw
200002cc:	00070023          	sb	zero,0(a4)
200002d0:	3007a073          	csrs	mstatus,a5
200002d4:	854a                	mv	a0,s2
200002d6:	85a6                	mv	a1,s1
200002d8:	188010ef          	jal	20001460 <best_effort_wfe_or_timeout>
200002dc:	e531                	bnez	a0,20000328 <mutex_enter_block_until+0x7c>
200002de:	401c                	lw	a5,0(s0)
200002e0:	30047773          	csrrci	a4,mstatus,8
200002e4:	00379693          	slli	a3,a5,0x3
200002e8:	28d016b3          	bset	a3,zero,a3
200002ec:	9bf1                	andi	a5,a5,-4
200002ee:	44d7a62f          	amoor.w.aq	a2,a3,(a5)
200002f2:	8e75                	and	a2,a2,a3
200002f4:	fe6d                	bnez	a2,200002ee <mutex_enter_block_until+0x42>
200002f6:	0330000f          	fence	rw,rw
200002fa:	00440683          	lb	a3,4(s0)
200002fe:	00877793          	andi	a5,a4,8
20000302:	4018                	lw	a4,0(s0)
20000304:	fc06d2e3          	bgez	a3,200002c8 <mutex_enter_block_until+0x1c>
20000308:	01340223          	sb	s3,4(s0)
2000030c:	0330000f          	fence	rw,rw
20000310:	00070023          	sb	zero,0(a4)
20000314:	3007a073          	csrs	mstatus,a5
20000318:	40f2                	lw	ra,28(sp)
2000031a:	4462                	lw	s0,24(sp)
2000031c:	44d2                	lw	s1,20(sp)
2000031e:	4942                	lw	s2,16(sp)
20000320:	49b2                	lw	s3,12(sp)
20000322:	4505                	li	a0,1
20000324:	6105                	addi	sp,sp,32
20000326:	8082                	ret
20000328:	40f2                	lw	ra,28(sp)
2000032a:	4462                	lw	s0,24(sp)
2000032c:	44d2                	lw	s1,20(sp)
2000032e:	4942                	lw	s2,16(sp)
20000330:	49b2                	lw	s3,12(sp)
20000332:	4501                	li	a0,0
20000334:	6105                	addi	sp,sp,32
20000336:	8082                	ret

20000338 <mutex_try_enter_block_until>:
20000338:	411c                	lw	a5,0(a0)
2000033a:	300476f3          	csrrci	a3,mstatus,8
2000033e:	00379813          	slli	a6,a5,0x3
20000342:	29001833          	bset	a6,zero,a6
20000346:	9bf1                	andi	a5,a5,-4
20000348:	4507a8af          	amoor.w.aq	a7,a6,(a5)
2000034c:	0108f8b3          	and	a7,a7,a6
20000350:	fe089ce3          	bnez	a7,20000348 <mutex_try_enter_block_until+0x10>
20000354:	0330000f          	fence	rw,rw
20000358:	00450803          	lb	a6,4(a0)
2000035c:	0086f793          	andi	a5,a3,8
20000360:	4114                	lw	a3,0(a0)
20000362:	02084263          	bltz	a6,20000386 <mutex_try_enter_block_until+0x4e>
20000366:	0330000f          	fence	rw,rw
2000036a:	00068023          	sb	zero,0(a3)
2000036e:	3007a073          	csrs	mstatus,a5
20000372:	d00007b7          	lui	a5,0xd0000
20000376:	00078703          	lb	a4,0(a5) # d0000000 <__StackTop+0xaff7e000>
2000037a:	4781                	li	a5,0
2000037c:	01071463          	bne	a4,a6,20000384 <mutex_try_enter_block_until+0x4c>
20000380:	853e                	mv	a0,a5
20000382:	8082                	ret
20000384:	b725                	j	200002ac <mutex_enter_block_until>
20000386:	d0000637          	lui	a2,0xd0000
2000038a:	4210                	lw	a2,0(a2)
2000038c:	00c50223          	sb	a2,4(a0)
20000390:	0330000f          	fence	rw,rw
20000394:	00068023          	sb	zero,0(a3)
20000398:	3007a073          	csrs	mstatus,a5
2000039c:	4785                	li	a5,1
2000039e:	853e                	mv	a0,a5
200003a0:	8082                	ret

200003a2 <mutex_exit>:
200003a2:	411c                	lw	a5,0(a0)
200003a4:	30047773          	csrrci	a4,mstatus,8
200003a8:	00379693          	slli	a3,a5,0x3
200003ac:	28d016b3          	bset	a3,zero,a3
200003b0:	9bf1                	andi	a5,a5,-4
200003b2:	44d7a62f          	amoor.w.aq	a2,a3,(a5)
200003b6:	8e75                	and	a2,a2,a3
200003b8:	fe6d                	bnez	a2,200003b2 <mutex_exit+0x10>
200003ba:	0330000f          	fence	rw,rw
200003be:	57fd                	li	a5,-1
200003c0:	00f50223          	sb	a5,4(a0)
200003c4:	411c                	lw	a5,0(a0)
200003c6:	0330000f          	fence	rw,rw
200003ca:	00078023          	sb	zero,0(a5)
200003ce:	00877793          	andi	a5,a4,8
200003d2:	3007a073          	csrs	mstatus,a5
200003d6:	00102033          	sgtz	zero,ra
200003da:	8082                	ret

200003dc <blink_program_init>:
200003dc:	afe007b7          	lui	a5,0xafe00
200003e0:	97aa                	add	a5,a5,a0
200003e2:	715d                	addi	sp,sp,-80
200003e4:	83d1                	srli	a5,a5,0x14
200003e6:	c0ca                	sw	s2,64(sp)
200003e8:	de4e                	sw	s3,60(sp)
200003ea:	892a                	mv	s2,a0
200003ec:	89ae                	mv	s3,a1
200003ee:	8536                	mv	a0,a3
200003f0:	00678593          	addi	a1,a5,6 # afe00006 <__StackTop+0x8fd7e006>
200003f4:	c686                	sw	ra,76(sp)
200003f6:	c4a2                	sw	s0,72(sp)
200003f8:	c2a6                	sw	s1,68(sp)
200003fa:	8436                	mv	s0,a3
200003fc:	84b2                	mv	s1,a2
200003fe:	2401                	jal	200005fe <gpio_set_function>
20000400:	4705                	li	a4,1
20000402:	8622                	mv	a2,s0
20000404:	85ce                	mv	a1,s3
20000406:	86ba                	mv	a3,a4
20000408:	854a                	mv	a0,s2
2000040a:	754030ef          	jal	20003b5e <pio_sm_set_consecutive_pindirs>
2000040e:	00248713          	addi	a4,s1,2
20000412:	00748693          	addi	a3,s1,7
20000416:	00541793          	slli	a5,s0,0x5
2000041a:	06b2                	slli	a3,a3,0xc
2000041c:	071e                	slli	a4,a4,0x7
2000041e:	0406                	slli	s0,s0,0x1
20000420:	3e07f793          	andi	a5,a5,992
20000424:	8f55                	or	a4,a4,a3
20000426:	85ce                	mv	a1,s3
20000428:	854a                	mv	a0,s2
2000042a:	68c1                	lui	a7,0x10
2000042c:	8626                	mv	a2,s1
2000042e:	000c0837          	lui	a6,0xc0
20000432:	c1f46413          	ori	s0,s0,-993
20000436:	29a79793          	bseti	a5,a5,0x1a
2000043a:	0874                	addi	a3,sp,28
2000043c:	d622                	sw	s0,44(sp)
2000043e:	ce46                	sw	a7,28(sp)
20000440:	d03a                	sw	a4,32(sp)
20000442:	d242                	sw	a6,36(sp)
20000444:	d43e                	sw	a5,40(sp)
20000446:	7aa030ef          	jal	20003bf0 <pio_sm_init>
2000044a:	40b6                	lw	ra,76(sp)
2000044c:	4426                	lw	s0,72(sp)
2000044e:	4496                	lw	s1,68(sp)
20000450:	4906                	lw	s2,64(sp)
20000452:	59f2                	lw	s3,60(sp)
20000454:	6161                	addi	sp,sp,80
20000456:	8082                	ret

20000458 <blink_pin_forever>:
20000458:	1101                	addi	sp,sp,-32
2000045a:	ce06                	sw	ra,28(sp)
2000045c:	cc22                	sw	s0,24(sp)
2000045e:	ca26                	sw	s1,20(sp)
20000460:	c84a                	sw	s2,16(sp)
20000462:	c64e                	sw	s3,12(sp)
20000464:	892a                	mv	s2,a0
20000466:	84ba                	mv	s1,a4
20000468:	89b6                	mv	s3,a3
2000046a:	842e                	mv	s0,a1
2000046c:	3f85                	jal	200003dc <blink_program_init>
2000046e:	00092783          	lw	a5,0(s2)
20000472:	20006537          	lui	a0,0x20006
20000476:	85ce                	mv	a1,s3
20000478:	288797b3          	bset	a5,a5,s0
2000047c:	00f92023          	sw	a5,0(s2)
20000480:	8626                	mv	a2,s1
20000482:	7f850513          	addi	a0,a0,2040 # 200067f8 <strlen+0x66>
20000486:	3ca030ef          	jal	20003850 <__wrap_printf>
2000048a:	4515                	li	a0,5
2000048c:	3b8010ef          	jal	20001844 <clock_get_hz>
20000490:	0486                	slli	s1,s1,0x1
20000492:	02955533          	divu	a0,a0,s1
20000496:	21244433          	sh2add	s0,s0,s2
2000049a:	40f2                	lw	ra,28(sp)
2000049c:	44d2                	lw	s1,20(sp)
2000049e:	4942                	lw	s2,16(sp)
200004a0:	49b2                	lw	s3,12(sp)
200004a2:	1575                	addi	a0,a0,-3
200004a4:	c808                	sw	a0,16(s0)
200004a6:	4462                	lw	s0,24(sp)
200004a8:	6105                	addi	sp,sp,32
200004aa:	8082                	ret

200004ac <main>:
200004ac:	7139                	addi	sp,sp,-64
200004ae:	dc22                	sw	s0,56(sp)
200004b0:	de06                	sw	ra,60(sp)
200004b2:	da26                	sw	s1,52(sp)
200004b4:	d84a                	sw	s2,48(sp)
200004b6:	d64e                	sw	s3,44(sp)
200004b8:	d452                	sw	s4,40(sp)
200004ba:	d256                	sw	s5,36(sp)
200004bc:	20007437          	lui	s0,0x20007
200004c0:	2a2d                	jal	200005fa <setup_default_uart>
200004c2:	0834                	addi	a3,sp,24
200004c4:	0810                	addi	a2,sp,16
200004c6:	002c                	addi	a1,sp,8
200004c8:	d8c40513          	addi	a0,s0,-628 # 20006d8c <blink_program>
200004cc:	4805                	li	a6,1
200004ce:	4789                	li	a5,2
200004d0:	470d                	li	a4,3
200004d2:	05b030ef          	jal	20003d2c <pio_claim_free_sm_and_add_program_for_gpio_range>
200004d6:	10050c63          	beqz	a0,200005ee <main+0x142>
200004da:	4622                	lw	a2,8(sp)
200004dc:	afe004b7          	lui	s1,0xafe00
200004e0:	45e2                	lw	a1,24(sp)
200004e2:	9626                	add	a2,a2,s1
200004e4:	20007937          	lui	s2,0x20007
200004e8:	8251                	srli	a2,a2,0x14
200004ea:	81490513          	addi	a0,s2,-2028 # 20006814 <strlen+0x82>
200004ee:	362030ef          	jal	20003850 <__wrap_printf>
200004f2:	4662                	lw	a2,24(sp)
200004f4:	45c2                	lw	a1,16(sp)
200004f6:	4522                	lw	a0,8(sp)
200004f8:	06400713          	li	a4,100
200004fc:	468d                	li	a3,3
200004fe:	3fa9                	jal	20000458 <blink_pin_forever>
20000500:	45c2                	lw	a1,16(sp)
20000502:	4522                	lw	a0,8(sp)
20000504:	0585                	addi	a1,a1,1
20000506:	5f4030ef          	jal	20003afa <pio_sm_claim>
2000050a:	45c2                	lw	a1,16(sp)
2000050c:	4662                	lw	a2,24(sp)
2000050e:	4522                	lw	a0,8(sp)
20000510:	0585                	addi	a1,a1,1
20000512:	05a00713          	li	a4,90
20000516:	4691                	li	a3,4
20000518:	3781                	jal	20000458 <blink_pin_forever>
2000051a:	0850                	addi	a2,sp,20
2000051c:	006c                	addi	a1,sp,12
2000051e:	4789                	li	a5,2
20000520:	0874                	addi	a3,sp,28
20000522:	d8c40513          	addi	a0,s0,-628
20000526:	4805                	li	a6,1
20000528:	02000713          	li	a4,32
2000052c:	001030ef          	jal	20003d2c <pio_claim_free_sm_and_add_program_for_gpio_range>
20000530:	4632                	lw	a2,12(sp)
20000532:	45f2                	lw	a1,28(sp)
20000534:	87aa                	mv	a5,a0
20000536:	9626                	add	a2,a2,s1
20000538:	81490513          	addi	a0,s2,-2028
2000053c:	84be                	mv	s1,a5
2000053e:	8251                	srli	a2,a2,0x14
20000540:	310030ef          	jal	20003850 <__wrap_printf>
20000544:	c8c5                	beqz	s1,200005f4 <main+0x148>
20000546:	4672                	lw	a2,28(sp)
20000548:	45d2                	lw	a1,20(sp)
2000054a:	4532                	lw	a0,12(sp)
2000054c:	05000713          	li	a4,80
20000550:	02000693          	li	a3,32
20000554:	3711                	jal	20000458 <blink_pin_forever>
20000556:	45d2                	lw	a1,20(sp)
20000558:	4532                	lw	a0,12(sp)
2000055a:	4981                	li	s3,0
2000055c:	0585                	addi	a1,a1,1
2000055e:	59c030ef          	jal	20003afa <pio_sm_claim>
20000562:	45d2                	lw	a1,20(sp)
20000564:	4672                	lw	a2,28(sp)
20000566:	4532                	lw	a0,12(sp)
20000568:	04600713          	li	a4,70
2000056c:	02100693          	li	a3,33
20000570:	0585                	addi	a1,a1,1
20000572:	35dd                	jal	20000458 <blink_pin_forever>
20000574:	45d2                	lw	a1,20(sp)
20000576:	4532                	lw	a0,12(sp)
20000578:	20007ab7          	lui	s5,0x20007
2000057c:	0585                	addi	a1,a1,1
2000057e:	5cc030ef          	jal	20003b4a <pio_sm_unclaim>
20000582:	46f2                	lw	a3,28(sp)
20000584:	4652                	lw	a2,20(sp)
20000586:	45b2                	lw	a1,12(sp)
20000588:	d8c40513          	addi	a0,s0,-628
2000058c:	20007a37          	lui	s4,0x20007
20000590:	239030ef          	jal	20003fc8 <pio_remove_program_and_unclaim_sm>
20000594:	45c2                	lw	a1,16(sp)
20000596:	4522                	lw	a0,8(sp)
20000598:	d0000937          	lui	s2,0xd0000
2000059c:	0585                	addi	a1,a1,1
2000059e:	5ac030ef          	jal	20003b4a <pio_sm_unclaim>
200005a2:	46e2                	lw	a3,24(sp)
200005a4:	4642                	lw	a2,16(sp)
200005a6:	45a2                	lw	a1,8(sp)
200005a8:	d8c40513          	addi	a0,s0,-628
200005ac:	21d030ef          	jal	20003fc8 <pio_remove_program_and_unclaim_sm>
200005b0:	20007537          	lui	a0,0x20007
200005b4:	83450513          	addi	a0,a0,-1996 # 20006834 <strlen+0xa2>
200005b8:	190030ef          	jal	20003748 <__wrap_puts>
200005bc:	4781                	li	a5,0
200005be:	00492403          	lw	s0,4(s2) # d0000004 <__StackTop+0xaff7e004>
200005c2:	00892483          	lw	s1,8(s2)
200005c6:	850a8513          	addi	a0,s5,-1968 # 20006850 <strlen+0xbe>
200005ca:	48345413          	bexti	s0,s0,0x3
200005ce:	85a2                	mv	a1,s0
200005d0:	8885                	andi	s1,s1,1
200005d2:	00878463          	beq	a5,s0,200005da <main+0x12e>
200005d6:	27a030ef          	jal	20003850 <__wrap_printf>
200005da:	85a6                	mv	a1,s1
200005dc:	864a0513          	addi	a0,s4,-1948 # 20006864 <strlen+0xd2>
200005e0:	00998463          	beq	s3,s1,200005e8 <main+0x13c>
200005e4:	26c030ef          	jal	20003850 <__wrap_printf>
200005e8:	89a6                	mv	s3,s1
200005ea:	87a2                	mv	a5,s0
200005ec:	bfc9                	j	200005be <main+0x112>
200005ee:	368010ef          	jal	20001956 <hard_assertion_failure>
200005f2:	b5e5                	j	200004da <main+0x2e>
200005f4:	362010ef          	jal	20001956 <hard_assertion_failure>
200005f8:	b7b9                	j	20000546 <main+0x9a>

200005fa <setup_default_uart>:
200005fa:	4180306f          	j	20003a12 <stdio_uart_init>

200005fe <gpio_set_function>:
200005fe:	400387b7          	lui	a5,0x40038
20000602:	0791                	addi	a5,a5,4 # 40038004 <__StackTop+0x1ffb6004>
20000604:	20f547b3          	sh2add	a5,a0,a5
20000608:	4398                	lw	a4,0(a5)
2000060a:	6685                	lui	a3,0x1
2000060c:	96be                	add	a3,a3,a5
2000060e:	04074713          	xori	a4,a4,64
20000612:	0c077713          	andi	a4,a4,192
20000616:	40028637          	lui	a2,0x40028
2000061a:	c298                	sw	a4,0(a3)
2000061c:	20c56533          	sh3add	a0,a0,a2
20000620:	670d                	lui	a4,0x3
20000622:	97ba                	add	a5,a5,a4
20000624:	c14c                	sw	a1,4(a0)
20000626:	10000713          	li	a4,256
2000062a:	c398                	sw	a4,0(a5)
2000062c:	8082                	ret

2000062e <panic>:
2000062e:	7139                	addi	sp,sp,-64
20000630:	20007337          	lui	t1,0x20007
20000634:	cc22                	sw	s0,24(sp)
20000636:	842a                	mv	s0,a0
20000638:	87430513          	addi	a0,t1,-1932 # 20006874 <strlen+0xe2>
2000063c:	ce06                	sw	ra,28(sp)
2000063e:	d22e                	sw	a1,36(sp)
20000640:	d432                	sw	a2,40(sp)
20000642:	d636                	sw	a3,44(sp)
20000644:	d83a                	sw	a4,48(sp)
20000646:	da3e                	sw	a5,52(sp)
20000648:	dc42                	sw	a6,56(sp)
2000064a:	de46                	sw	a7,60(sp)
2000064c:	0fc030ef          	jal	20003748 <__wrap_puts>
20000650:	cc01                	beqz	s0,20000668 <panic+0x3a>
20000652:	104c                	addi	a1,sp,36
20000654:	8522                	mv	a0,s0
20000656:	c62e                	sw	a1,12(sp)
20000658:	535020ef          	jal	2000338c <weak_raw_vprintf>
2000065c:	20007537          	lui	a0,0x20007
20000660:	88450513          	addi	a0,a0,-1916 # 20006884 <strlen+0xf2>
20000664:	0e4030ef          	jal	20003748 <__wrap_puts>
20000668:	4505                	li	a0,1
2000066a:	571020ef          	jal	200033da <_exit>

2000066e <hw_claim_lock>:
2000066e:	30047573          	csrrci	a0,mstatus,8
20000672:	200077b7          	lui	a5,0x20007
20000676:	09b78793          	addi	a5,a5,155 # 2000709b <_sw_spin_locks+0xb>
2000067a:	00379713          	slli	a4,a5,0x3
2000067e:	28e01733          	bset	a4,zero,a4
20000682:	9bf1                	andi	a5,a5,-4
20000684:	44e7a6af          	amoor.w.aq	a3,a4,(a5)
20000688:	8ef9                	and	a3,a3,a4
2000068a:	feed                	bnez	a3,20000684 <hw_claim_lock+0x16>
2000068c:	0330000f          	fence	rw,rw
20000690:	8082                	ret

20000692 <hw_claim_unlock>:
20000692:	0330000f          	fence	rw,rw
20000696:	200077b7          	lui	a5,0x20007
2000069a:	09078793          	addi	a5,a5,144 # 20007090 <_sw_spin_locks>
2000069e:	000785a3          	sb	zero,11(a5)
200006a2:	8921                	andi	a0,a0,8
200006a4:	30052073          	csrs	mstatus,a0
200006a8:	8082                	ret

200006aa <hw_claim_or_assert>:
200006aa:	300476f3          	csrrci	a3,mstatus,8
200006ae:	20007737          	lui	a4,0x20007
200006b2:	09b70713          	addi	a4,a4,155 # 2000709b <_sw_spin_locks+0xb>
200006b6:	00371813          	slli	a6,a4,0x3
200006ba:	29001833          	bset	a6,zero,a6
200006be:	9b71                	andi	a4,a4,-4
200006c0:	450728af          	amoor.w.aq	a7,a6,(a4)
200006c4:	0108f8b3          	and	a7,a7,a6
200006c8:	fe089ce3          	bnez	a7,200006c0 <hw_claim_or_assert+0x16>
200006cc:	0330000f          	fence	rw,rw
200006d0:	0035d713          	srli	a4,a1,0x3
200006d4:	953a                	add	a0,a0,a4
200006d6:	00054703          	lbu	a4,0(a0)
200006da:	0075f793          	andi	a5,a1,7
200006de:	28f017b3          	bset	a5,zero,a5
200006e2:	00f77833          	and	a6,a4,a5
200006e6:	02081163          	bnez	a6,20000708 <hw_claim_or_assert+0x5e>
200006ea:	8f5d                	or	a4,a4,a5
200006ec:	00e50023          	sb	a4,0(a0)
200006f0:	0330000f          	fence	rw,rw
200006f4:	200077b7          	lui	a5,0x20007
200006f8:	09078793          	addi	a5,a5,144 # 20007090 <_sw_spin_locks>
200006fc:	000785a3          	sb	zero,11(a5)
20000700:	8aa1                	andi	a3,a3,8
20000702:	3006a073          	csrs	mstatus,a3
20000706:	8082                	ret
20000708:	1141                	addi	sp,sp,-16
2000070a:	8532                	mv	a0,a2
2000070c:	c606                	sw	ra,12(sp)
2000070e:	3705                	jal	2000062e <panic>

20000710 <hw_claim_unused_from_range>:
20000710:	30047873          	csrrci	a6,mstatus,8
20000714:	200077b7          	lui	a5,0x20007
20000718:	09b78793          	addi	a5,a5,155 # 2000709b <_sw_spin_locks+0xb>
2000071c:	00379893          	slli	a7,a5,0x3
20000720:	291018b3          	bset	a7,zero,a7
20000724:	9bf1                	andi	a5,a5,-4
20000726:	4517a32f          	amoor.w.aq	t1,a7,(a5)
2000072a:	01137333          	and	t1,t1,a7
2000072e:	fe031ce3          	bnez	t1,20000726 <hw_claim_unused_from_range+0x16>
20000732:	0330000f          	fence	rw,rw
20000736:	00887e13          	andi	t3,a6,8
2000073a:	00c6f663          	bgeu	a3,a2,20000746 <hw_claim_unused_from_range+0x36>
2000073e:	a099                	j	20000784 <hw_claim_unused_from_range+0x74>
20000740:	0605                	addi	a2,a2,1 # 40028001 <__StackTop+0x1ffa6001>
20000742:	06c6e163          	bltu	a3,a2,200007a4 <hw_claim_unused_from_range+0x94>
20000746:	00365793          	srli	a5,a2,0x3
2000074a:	97aa                	add	a5,a5,a0
2000074c:	0007c883          	lbu	a7,0(a5)
20000750:	00767813          	andi	a6,a2,7
20000754:	29001833          	bset	a6,zero,a6
20000758:	0108f333          	and	t1,a7,a6
2000075c:	fe0312e3          	bnez	t1,20000740 <hw_claim_unused_from_range+0x30>
20000760:	0108e8b3          	or	a7,a7,a6
20000764:	01178023          	sb	a7,0(a5)
20000768:	8532                	mv	a0,a2
2000076a:	0330000f          	fence	rw,rw
2000076e:	200077b7          	lui	a5,0x20007
20000772:	09078793          	addi	a5,a5,144 # 20007090 <_sw_spin_locks>
20000776:	000785a3          	sb	zero,11(a5)
2000077a:	300e2073          	csrs	mstatus,t3
2000077e:	00054e63          	bltz	a0,2000079a <hw_claim_unused_from_range+0x8a>
20000782:	8082                	ret
20000784:	0330000f          	fence	rw,rw
20000788:	200077b7          	lui	a5,0x20007
2000078c:	09078793          	addi	a5,a5,144 # 20007090 <_sw_spin_locks>
20000790:	000785a3          	sb	zero,11(a5)
20000794:	300e2073          	csrs	mstatus,t3
20000798:	557d                	li	a0,-1
2000079a:	d5e5                	beqz	a1,20000782 <hw_claim_unused_from_range+0x72>
2000079c:	1141                	addi	sp,sp,-16
2000079e:	853a                	mv	a0,a4
200007a0:	c606                	sw	ra,12(sp)
200007a2:	3571                	jal	2000062e <panic>
200007a4:	557d                	li	a0,-1
200007a6:	b7d1                	j	2000076a <hw_claim_unused_from_range+0x5a>

200007a8 <hw_claim_clear>:
200007a8:	30047773          	csrrci	a4,mstatus,8
200007ac:	200077b7          	lui	a5,0x20007
200007b0:	09b78793          	addi	a5,a5,155 # 2000709b <_sw_spin_locks+0xb>
200007b4:	00379693          	slli	a3,a5,0x3
200007b8:	28d016b3          	bset	a3,zero,a3
200007bc:	9bf1                	andi	a5,a5,-4
200007be:	44d7a62f          	amoor.w.aq	a2,a3,(a5)
200007c2:	8e75                	and	a2,a2,a3
200007c4:	fe6d                	bnez	a2,200007be <hw_claim_clear+0x16>
200007c6:	0330000f          	fence	rw,rw
200007ca:	0035d793          	srli	a5,a1,0x3
200007ce:	953e                	add	a0,a0,a5
200007d0:	00054783          	lbu	a5,0(a0)
200007d4:	899d                	andi	a1,a1,7
200007d6:	48b797b3          	bclr	a5,a5,a1
200007da:	00f50023          	sb	a5,0(a0)
200007de:	0330000f          	fence	rw,rw
200007e2:	200077b7          	lui	a5,0x20007
200007e6:	09078793          	addi	a5,a5,144 # 20007090 <_sw_spin_locks>
200007ea:	000785a3          	sb	zero,11(a5)
200007ee:	00877793          	andi	a5,a4,8
200007f2:	3007a073          	csrs	mstatus,a5
200007f6:	8082                	ret

200007f8 <next_striped_spin_lock_num>:
200007f8:	20007737          	lui	a4,0x20007
200007fc:	ed074503          	lbu	a0,-304(a4) # 20006ed0 <striped_spin_lock_num>
20000800:	46dd                	li	a3,23
20000802:	00150793          	addi	a5,a0,1
20000806:	0ff7f793          	zext.b	a5,a5
2000080a:	00f6f363          	bgeu	a3,a5,20000810 <next_striped_spin_lock_num+0x18>
2000080e:	47c1                	li	a5,16
20000810:	ecf70823          	sb	a5,-304(a4)
20000814:	8082                	ret

20000816 <spin_locks_reset>:
20000816:	200076b7          	lui	a3,0x20007
2000081a:	09068693          	addi	a3,a3,144 # 20007090 <_sw_spin_locks>
2000081e:	4781                	li	a5,0
20000820:	02000613          	li	a2,32
20000824:	0330000f          	fence	rw,rw
20000828:	00f68733          	add	a4,a3,a5
2000082c:	00070023          	sb	zero,0(a4)
20000830:	0785                	addi	a5,a5,1
20000832:	fec799e3          	bne	a5,a2,20000824 <spin_locks_reset+0xe>
20000836:	8082                	ret

20000838 <runtime_init_per_core_irq_priorities>:
20000838:	4681                	li	a3,0
2000083a:	483d                	li	a6,15
2000083c:	451d                	li	a0,7
2000083e:	03400593          	li	a1,52
20000842:	0036f793          	andi	a5,a3,3
20000846:	078a                	slli	a5,a5,0x2
20000848:	00f81733          	sll	a4,a6,a5
2000084c:	0026d613          	srli	a2,a3,0x2
20000850:	0742                	slli	a4,a4,0x10
20000852:	8f51                	or	a4,a4,a2
20000854:	be373073          	csrc	0xbe3,a4
20000858:	00f517b3          	sll	a5,a0,a5
2000085c:	07c2                	slli	a5,a5,0x10
2000085e:	8fd1                	or	a5,a5,a2
20000860:	be37a073          	csrs	0xbe3,a5
20000864:	0685                	addi	a3,a3,1
20000866:	fcb69ee3          	bne	a3,a1,20000842 <runtime_init_per_core_irq_priorities+0xa>
2000086a:	8082                	ret

2000086c <irq_set_enabled>:
2000086c:	00555793          	srli	a5,a0,0x5
20000870:	0786                	slli	a5,a5,0x1
20000872:	28a01533          	bset	a0,zero,a0
20000876:	76c1                	lui	a3,0xffff0
20000878:	8ee9                	and	a3,a3,a0
2000087a:	00178713          	addi	a4,a5,1
2000087e:	0542                	slli	a0,a0,0x10
20000880:	8f55                	or	a4,a4,a3
20000882:	8d5d                	or	a0,a0,a5
20000884:	c991                	beqz	a1,20000898 <irq_set_enabled+0x2c>
20000886:	be253073          	csrc	0xbe2,a0
2000088a:	be273073          	csrc	0xbe2,a4
2000088e:	be052073          	csrs	0xbe0,a0
20000892:	be072073          	csrs	0xbe0,a4
20000896:	8082                	ret
20000898:	be053073          	csrc	0xbe0,a0
2000089c:	be073073          	csrc	0xbe0,a4
200008a0:	8082                	ret

200008a2 <irq_set_exclusive_handler>:
200008a2:	1141                	addi	sp,sp,-16
200008a4:	c226                	sw	s1,4(sp)
200008a6:	c606                	sw	ra,12(sp)
200008a8:	c422                	sw	s0,8(sp)
200008aa:	c04a                	sw	s2,0(sp)
200008ac:	84ae                	mv	s1,a1
200008ae:	30047973          	csrrci	s2,mstatus,8
200008b2:	200077b7          	lui	a5,0x20007
200008b6:	09978793          	addi	a5,a5,153 # 20007099 <_sw_spin_locks+0x9>
200008ba:	00379713          	slli	a4,a5,0x3
200008be:	28e01733          	bset	a4,zero,a4
200008c2:	9bf1                	andi	a5,a5,-4
200008c4:	44e7a6af          	amoor.w.aq	a3,a4,(a5)
200008c8:	8ef9                	and	a3,a3,a4
200008ca:	feed                	bnez	a3,200008c4 <irq_set_exclusive_handler+0x22>
200008cc:	0330000f          	fence	rw,rw
200008d0:	305027f3          	csrr	a5,mtvec
200008d4:	03450513          	addi	a0,a0,52
200008d8:	9bf1                	andi	a5,a5,-4
200008da:	20f547b3          	sh2add	a5,a0,a5
200008de:	4398                	lw	a4,0(a5)
200008e0:	200007b7          	lui	a5,0x20000
200008e4:	1a478793          	addi	a5,a5,420 # 200001a4 <__unhandled_user_irq>
200008e8:	00251413          	slli	s0,a0,0x2
200008ec:	00f70663          	beq	a4,a5,200008f8 <irq_set_exclusive_handler+0x56>
200008f0:	00e58463          	beq	a1,a4,200008f8 <irq_set_exclusive_handler+0x56>
200008f4:	062010ef          	jal	20001956 <hard_assertion_failure>
200008f8:	305027f3          	csrr	a5,mtvec
200008fc:	9bf1                	andi	a5,a5,-4
200008fe:	97a2                	add	a5,a5,s0
20000900:	c384                	sw	s1,0(a5)
20000902:	0330000f          	fence	rw,rw
20000906:	0330000f          	fence	rw,rw
2000090a:	200077b7          	lui	a5,0x20007
2000090e:	09078793          	addi	a5,a5,144 # 20007090 <_sw_spin_locks>
20000912:	000784a3          	sb	zero,9(a5)
20000916:	00897793          	andi	a5,s2,8
2000091a:	3007a073          	csrs	mstatus,a5
2000091e:	40b2                	lw	ra,12(sp)
20000920:	4422                	lw	s0,8(sp)
20000922:	4492                	lw	s1,4(sp)
20000924:	4902                	lw	s2,0(sp)
20000926:	0141                	addi	sp,sp,16
20000928:	8082                	ret

2000092a <irq_remove_handler>:
2000092a:	7179                	addi	sp,sp,-48
2000092c:	d606                	sw	ra,44(sp)
2000092e:	d04a                	sw	s2,32(sp)
20000930:	cc52                	sw	s4,24(sp)
20000932:	ca56                	sw	s5,20(sp)
20000934:	c85a                	sw	s6,16(sp)
20000936:	30047973          	csrrci	s2,mstatus,8
2000093a:	200077b7          	lui	a5,0x20007
2000093e:	09978793          	addi	a5,a5,153 # 20007099 <_sw_spin_locks+0x9>
20000942:	00379713          	slli	a4,a5,0x3
20000946:	28e01733          	bset	a4,zero,a4
2000094a:	9bf1                	andi	a5,a5,-4
2000094c:	44e7a6af          	amoor.w.aq	a3,a4,(a5)
20000950:	8ef9                	and	a3,a3,a4
20000952:	feed                	bnez	a3,2000094c <irq_remove_handler+0x22>
20000954:	0330000f          	fence	rw,rw
20000958:	305027f3          	csrr	a5,mtvec
2000095c:	03450713          	addi	a4,a0,52
20000960:	9bf1                	andi	a5,a5,-4
20000962:	20f747b3          	sh2add	a5,a4,a5
20000966:	0007aa83          	lw	s5,0(a5)
2000096a:	200007b7          	lui	a5,0x20000
2000096e:	1a478b13          	addi	s6,a5,420 # 200001a4 <__unhandled_user_irq>
20000972:	00271a13          	slli	s4,a4,0x2
20000976:	0b6a8763          	beq	s5,s6,20000a24 <irq_remove_handler+0xfa>
2000097a:	d422                	sw	s0,40(sp)
2000097c:	842e                	mv	s0,a1
2000097e:	0cba8e63          	beq	s5,a1,20000a5a <irq_remove_handler+0x130>
20000982:	d226                	sw	s1,36(sp)
20000984:	200074b7          	lui	s1,0x20007
20000988:	e5848493          	addi	s1,s1,-424 # 20006e58 <__binary_info_end>
2000098c:	409a8733          	sub	a4,s5,s1
20000990:	02f00793          	li	a5,47
20000994:	08e7e663          	bltu	a5,a4,20000a20 <irq_remove_handler+0xf6>
20000998:	ce4e                	sw	s3,28(sp)
2000099a:	c65e                	sw	s7,12(sp)
2000099c:	c462                	sw	s8,8(sp)
2000099e:	00455793          	srli	a5,a0,0x4
200009a2:	be07a7f3          	csrrs	a5,0xbe0,a5
200009a6:	00f57b93          	andi	s7,a0,15
200009aa:	28a01733          	bset	a4,zero,a0
200009ae:	00555993          	srli	s3,a0,0x5
200009b2:	83c1                	srli	a5,a5,0x10
200009b4:	01071c13          	slli	s8,a4,0x10
200009b8:	0986                	slli	s3,s3,0x1
200009ba:	29701bb3          	bset	s7,zero,s7
200009be:	00fbfbb3          	and	s7,s7,a5
200009c2:	013c6c33          	or	s8,s8,s3
200009c6:	be0c3073          	csrc	0xbe0,s8
200009ca:	77c1                	lui	a5,0xffff0
200009cc:	8f7d                	and	a4,a4,a5
200009ce:	0985                	addi	s3,s3,1
200009d0:	00e9e9b3          	or	s3,s3,a4
200009d4:	be09b073          	csrc	0xbe0,s3
200009d8:	0330000f          	fence	rw,rw
200009dc:	be5027f3          	csrr	a5,0xbe5
200009e0:	01079713          	slli	a4,a5,0x10
200009e4:	4801                	li	a6,0
200009e6:	1e075063          	bgez	a4,20000bc6 <irq_remove_handler+0x29c>
200009ea:	87d6                	mv	a5,s5
200009ec:	4501                	li	a0,0
200009ee:	4398                	lw	a4,0(a5)
200009f0:	43d4                	lw	a3,4(a5)
200009f2:	00877613          	andi	a2,a4,8
200009f6:	80077713          	andi	a4,a4,-2048
200009fa:	48b71713          	bclri	a4,a4,0xb
200009fe:	4146d593          	srai	a1,a3,0x14
20000a02:	e219                	bnez	a2,20000a08 <irq_remove_handler+0xde>
20000a04:	00b706b3          	add	a3,a4,a1
20000a08:	04d40d63          	beq	s0,a3,20000a62 <irq_remove_handler+0x138>
20000a0c:	00a78703          	lb	a4,10(a5) # ffff000a <__StackTop+0xdff6e00a>
20000a10:	853e                	mv	a0,a5
20000a12:	20e727b3          	sh1add	a5,a4,a4
20000a16:	18074c63          	bltz	a4,20000bae <irq_remove_handler+0x284>
20000a1a:	2097c7b3          	sh2add	a5,a5,s1
20000a1e:	bfc1                	j	200009ee <irq_remove_handler+0xc4>
20000a20:	5422                	lw	s0,40(sp)
20000a22:	5492                	lw	s1,36(sp)
20000a24:	305027f3          	csrr	a5,mtvec
20000a28:	9bf1                	andi	a5,a5,-4
20000a2a:	97d2                	add	a5,a5,s4
20000a2c:	0157a023          	sw	s5,0(a5)
20000a30:	0330000f          	fence	rw,rw
20000a34:	0330000f          	fence	rw,rw
20000a38:	200077b7          	lui	a5,0x20007
20000a3c:	09078793          	addi	a5,a5,144 # 20007090 <_sw_spin_locks>
20000a40:	000784a3          	sb	zero,9(a5)
20000a44:	00897913          	andi	s2,s2,8
20000a48:	30092073          	csrs	mstatus,s2
20000a4c:	50b2                	lw	ra,44(sp)
20000a4e:	5902                	lw	s2,32(sp)
20000a50:	4a62                	lw	s4,24(sp)
20000a52:	4ad2                	lw	s5,20(sp)
20000a54:	4b42                	lw	s6,16(sp)
20000a56:	6145                	addi	sp,sp,48
20000a58:	8082                	ret
20000a5a:	5422                	lw	s0,40(sp)
20000a5c:	1a478a93          	addi	s5,a5,420
20000a60:	b7d1                	j	20000a24 <irq_remove_handler+0xfa>
20000a62:	00a78603          	lb	a2,10(a5)
20000a66:	18064563          	bltz	a2,20000bf0 <irq_remove_handler+0x2c6>
20000a6a:	20c62733          	sh1add	a4,a2,a2
20000a6e:	20974733          	sh2add	a4,a4,s1
20000a72:	4314                	lw	a3,0(a4)
20000a74:	00161593          	slli	a1,a2,0x1
20000a78:	4358                	lw	a4,4(a4)
20000a7a:	0086f513          	andi	a0,a3,8
20000a7e:	e519                	bnez	a0,20000a8c <irq_remove_handler+0x162>
20000a80:	8006f693          	andi	a3,a3,-2048
20000a84:	48b69693          	bclri	a3,a3,0xb
20000a88:	8751                	srai	a4,a4,0x14
20000a8a:	9736                	add	a4,a4,a3
20000a8c:	03578363          	beq	a5,s5,20000ab2 <irq_remove_handler+0x188>
20000a90:	00171693          	slli	a3,a4,0x1
20000a94:	6505                	lui	a0,0x1
20000a96:	8ee9                	and	a3,a3,a0
20000a98:	96ba                	add	a3,a3,a4
20000a9a:	8006f693          	andi	a3,a3,-2048
20000a9e:	48b69693          	bclri	a3,a3,0xb
20000aa2:	0752                	slli	a4,a4,0x14
20000aa4:	0b76e693          	ori	a3,a3,183
20000aa8:	0e776713          	ori	a4,a4,231
20000aac:	c394                	sw	a3,0(a5)
20000aae:	28f71713          	bseti	a4,a4,0xf
20000ab2:	00c586b3          	add	a3,a1,a2
20000ab6:	2096c833          	sh2add	a6,a3,s1
20000aba:	00b84503          	lbu	a0,11(a6) # c000b <HeapSize+0xbf80b>
20000abe:	c3d8                	sw	a4,4(a5)
20000ac0:	6731                	lui	a4,0xc
20000ac2:	00a785a3          	sb	a0,11(a5)
20000ac6:	00a80883          	lb	a7,10(a6)
20000aca:	00269513          	slli	a0,a3,0x2
20000ace:	e4270713          	addi	a4,a4,-446 # be42 <HeapSize+0xb642>
20000ad2:	01178523          	sb	a7,10(a5)
20000ad6:	0a08cf63          	bltz	a7,20000b94 <irq_remove_handler+0x26a>
20000ada:	00885683          	lhu	a3,8(a6)
20000ade:	0521                	addi	a0,a0,8 # 1008 <HeapSize+0x808>
20000ae0:	9526                	add	a0,a0,s1
20000ae2:	0016d813          	srli	a6,a3,0x1
20000ae6:	00369713          	slli	a4,a3,0x3
20000aea:	04087893          	andi	a7,a6,64
20000aee:	02077713          	andi	a4,a4,32
20000af2:	01176733          	or	a4,a4,a7
20000af6:	00169313          	slli	t1,a3,0x1
20000afa:	00878893          	addi	a7,a5,8
20000afe:	41170733          	sub	a4,a4,a7
20000b02:	08037313          	andi	t1,t1,128
20000b06:	30087893          	andi	a7,a6,768
20000b0a:	971a                	add	a4,a4,t1
20000b0c:	0026d813          	srli	a6,a3,0x2
20000b10:	00269313          	slli	t1,a3,0x2
20000b14:	829d                	srli	a3,a3,0x7
20000b16:	9746                	add	a4,a4,a7
20000b18:	8ac1                	andi	a3,a3,16
20000b1a:	40037893          	andi	a7,t1,1024
20000b1e:	00e87313          	andi	t1,a6,14
20000b22:	0066e6b3          	or	a3,a3,t1
20000b26:	9746                	add	a4,a4,a7
20000b28:	9736                	add	a4,a4,a3
20000b2a:	28b01893          	bseti	a7,zero,0xb
20000b2e:	972a                	add	a4,a4,a0
20000b30:	01187833          	and	a6,a6,a7
20000b34:	41070733          	sub	a4,a4,a6
20000b38:	00171693          	slli	a3,a4,0x1
20000b3c:	00375513          	srli	a0,a4,0x3
20000b40:	6305                	lui	t1,0x1
20000b42:	00771813          	slli	a6,a4,0x7
20000b46:	8911                	andi	a0,a0,4
20000b48:	0066f6b3          	and	a3,a3,t1
20000b4c:	01187833          	and	a6,a6,a7
20000b50:	8ec9                	or	a3,a3,a0
20000b52:	00171513          	slli	a0,a4,0x1
20000b56:	0106e6b3          	or	a3,a3,a6
20000b5a:	60057513          	andi	a0,a0,1536
20000b5e:	00275813          	srli	a6,a4,0x2
20000b62:	8ec9                	or	a3,a3,a0
20000b64:	10087813          	andi	a6,a6,256
20000b68:	00171513          	slli	a0,a4,0x1
20000b6c:	0106e6b3          	or	a3,a3,a6
20000b70:	08057513          	andi	a0,a0,128
20000b74:	00175813          	srli	a6,a4,0x1
20000b78:	8ec9                	or	a3,a3,a0
20000b7a:	04087813          	andi	a6,a6,64
20000b7e:	00271513          	slli	a0,a4,0x2
20000b82:	0106e733          	or	a4,a3,a6
20000b86:	03857693          	andi	a3,a0,56
20000b8a:	6529                	lui	a0,0xa
20000b8c:	8f55                	or	a4,a4,a3
20000b8e:	00150693          	addi	a3,a0,1 # a001 <HeapSize+0x9801>
20000b92:	8f55                	or	a4,a4,a3
20000b94:	200076b7          	lui	a3,0x20007
20000b98:	1046c503          	lbu	a0,260(a3) # 20007104 <irq_handler_chain_free_slot_head>
20000b9c:	95b2                	add	a1,a1,a2
20000b9e:	2095c5b3          	sh2add	a1,a1,s1
20000ba2:	00e79423          	sh	a4,8(a5)
20000ba6:	00a58523          	sb	a0,10(a1)
20000baa:	10c68223          	sb	a2,260(a3)
20000bae:	020b9863          	bnez	s7,20000bde <irq_remove_handler+0x2b4>
20000bb2:	be0c3073          	csrc	0xbe0,s8
20000bb6:	be09b073          	csrc	0xbe0,s3
20000bba:	5422                	lw	s0,40(sp)
20000bbc:	5492                	lw	s1,36(sp)
20000bbe:	49f2                	lw	s3,28(sp)
20000bc0:	4bb2                	lw	s7,12(sp)
20000bc2:	4c22                	lw	s8,8(sp)
20000bc4:	b585                	j	20000a24 <irq_remove_handler+0xfa>
20000bc6:	8391                	srli	a5,a5,0x4
20000bc8:	c266                	sw	s9,4(sp)
20000bca:	1ff7fc93          	andi	s9,a5,511
20000bce:	01950463          	beq	a0,s9,20000bd6 <irq_remove_handler+0x2ac>
20000bd2:	585000ef          	jal	20001956 <hard_assertion_failure>
20000bd6:	034c8813          	addi	a6,s9,52
20000bda:	4c92                	lw	s9,4(sp)
20000bdc:	b539                	j	200009ea <irq_remove_handler+0xc0>
20000bde:	be2c3073          	csrc	0xbe2,s8
20000be2:	be29b073          	csrc	0xbe2,s3
20000be6:	be0c2073          	csrs	0xbe0,s8
20000bea:	be09a073          	csrs	0xbe0,s3
20000bee:	b7f1                	j	20000bba <irq_remove_handler+0x290>
20000bf0:	02081f63          	bnez	a6,20000c2e <irq_remove_handler+0x304>
20000bf4:	c15d                	beqz	a0,20000c9a <irq_remove_handler+0x370>
20000bf6:	7771                	lui	a4,0xffffc
20000bf8:	e4270713          	addi	a4,a4,-446 # ffffbe42 <__StackTop+0xdff79e42>
20000bfc:	56fd                	li	a3,-1
20000bfe:	00e51423          	sh	a4,8(a0)
20000c02:	00d50523          	sb	a3,10(a0)
20000c06:	40978733          	sub	a4,a5,s1
20000c0a:	aaaab6b7          	lui	a3,0xaaaab
20000c0e:	aab68693          	addi	a3,a3,-1365 # aaaaaaab <__StackTop+0x8aa28aab>
20000c12:	8709                	srai	a4,a4,0x2
20000c14:	02d70733          	mul	a4,a4,a3
20000c18:	200076b7          	lui	a3,0x20007
20000c1c:	1046c603          	lbu	a2,260(a3) # 20007104 <irq_handler_chain_free_slot_head>
20000c20:	00c78523          	sb	a2,10(a5)
20000c24:	10e68223          	sb	a4,260(a3)
20000c28:	f80b85e3          	beqz	s7,20000bb2 <irq_remove_handler+0x288>
20000c2c:	bf4d                	j	20000bde <irq_remove_handler+0x2b4>
20000c2e:	200076b7          	lui	a3,0x20007
20000c32:	00878713          	addi	a4,a5,8
20000c36:	e9468693          	addi	a3,a3,-364 # 20006e94 <irq_handler_chain_remove_tail>
20000c3a:	8e99                	sub	a3,a3,a4
20000c3c:	00169713          	slli	a4,a3,0x1
20000c40:	6605                	lui	a2,0x1
20000c42:	0036d593          	srli	a1,a3,0x3
20000c46:	8f71                	and	a4,a4,a2
20000c48:	8991                	andi	a1,a1,4
20000c4a:	00769613          	slli	a2,a3,0x7
20000c4e:	28b01513          	bseti	a0,zero,0xb
20000c52:	8f4d                	or	a4,a4,a1
20000c54:	8e69                	and	a2,a2,a0
20000c56:	00169593          	slli	a1,a3,0x1
20000c5a:	8f51                	or	a4,a4,a2
20000c5c:	6005f593          	andi	a1,a1,1536
20000c60:	0026d613          	srli	a2,a3,0x2
20000c64:	8f4d                	or	a4,a4,a1
20000c66:	10067613          	andi	a2,a2,256
20000c6a:	00169593          	slli	a1,a3,0x1
20000c6e:	8f51                	or	a4,a4,a2
20000c70:	0805f593          	andi	a1,a1,128
20000c74:	0016d613          	srli	a2,a3,0x1
20000c78:	8f4d                	or	a4,a4,a1
20000c7a:	04067613          	andi	a2,a2,64
20000c7e:	068a                	slli	a3,a3,0x2
20000c80:	8f51                	or	a4,a4,a2
20000c82:	0386f693          	andi	a3,a3,56
20000c86:	8f55                	or	a4,a4,a3
20000c88:	00176713          	ori	a4,a4,1
20000c8c:	28d71713          	bseti	a4,a4,0xd
20000c90:	00e79423          	sh	a4,8(a5)
20000c94:	f00b8fe3          	beqz	s7,20000bb2 <irq_remove_handler+0x288>
20000c98:	b799                	j	20000bde <irq_remove_handler+0x2b4>
20000c9a:	8ada                	mv	s5,s6
20000c9c:	b7ad                	j	20000c06 <irq_remove_handler+0x2dc>

20000c9e <irq_add_tail_to_free_list>:
20000c9e:	be5027f3          	csrr	a5,0xbe5
20000ca2:	01079713          	slli	a4,a5,0x10
20000ca6:	4581                	li	a1,0
20000ca8:	00074963          	bltz	a4,20000cba <irq_add_tail_to_free_list+0x1c>
20000cac:	8391                	srli	a5,a5,0x4
20000cae:	1ff7f793          	andi	a5,a5,511
20000cb2:	03478793          	addi	a5,a5,52
20000cb6:	00279593          	slli	a1,a5,0x2
20000cba:	30047673          	csrrci	a2,mstatus,8
20000cbe:	200077b7          	lui	a5,0x20007
20000cc2:	09978793          	addi	a5,a5,153 # 20007099 <_sw_spin_locks+0x9>
20000cc6:	00379713          	slli	a4,a5,0x3
20000cca:	28e01733          	bset	a4,zero,a4
20000cce:	9bf1                	andi	a5,a5,-4
20000cd0:	44e7a6af          	amoor.w.aq	a3,a4,(a5)
20000cd4:	8ef9                	and	a3,a3,a4
20000cd6:	feed                	bnez	a3,20000cd0 <irq_add_tail_to_free_list+0x32>
20000cd8:	0330000f          	fence	rw,rw
20000cdc:	20007737          	lui	a4,0x20007
20000ce0:	e5870713          	addi	a4,a4,-424 # 20006e58 <__binary_info_end>
20000ce4:	40e507b3          	sub	a5,a0,a4
20000ce8:	aaaab6b7          	lui	a3,0xaaaab
20000cec:	aab68693          	addi	a3,a3,-1365 # aaaaaaab <__StackTop+0x8aa28aab>
20000cf0:	8789                	srai	a5,a5,0x2
20000cf2:	02d787b3          	mul	a5,a5,a3
20000cf6:	60479793          	sext.b	a5,a5
20000cfa:	305026f3          	csrr	a3,mtvec
20000cfe:	9af1                	andi	a3,a3,-4
20000d00:	96ae                	add	a3,a3,a1
20000d02:	4294                	lw	a3,0(a3)
20000d04:	04a68763          	beq	a3,a0,20000d52 <irq_add_tail_to_free_list+0xb4>
20000d08:	00a70683          	lb	a3,10(a4)
20000d0c:	04f68d63          	beq	a3,a5,20000d66 <irq_add_tail_to_free_list+0xc8>
20000d10:	01670683          	lb	a3,22(a4)
20000d14:	06f68763          	beq	a3,a5,20000d82 <irq_add_tail_to_free_list+0xe4>
20000d18:	02270683          	lb	a3,34(a4)
20000d1c:	06f68563          	beq	a3,a5,20000d86 <irq_add_tail_to_free_list+0xe8>
20000d20:	02e70683          	lb	a3,46(a4)
20000d24:	06f68363          	beq	a3,a5,20000d8a <irq_add_tail_to_free_list+0xec>
20000d28:	20007737          	lui	a4,0x20007
20000d2c:	10474683          	lbu	a3,260(a4) # 20007104 <irq_handler_chain_free_slot_head>
20000d30:	10f70223          	sb	a5,260(a4)
20000d34:	00d50523          	sb	a3,10(a0)
20000d38:	0330000f          	fence	rw,rw
20000d3c:	200077b7          	lui	a5,0x20007
20000d40:	09078793          	addi	a5,a5,144 # 20007090 <_sw_spin_locks>
20000d44:	000784a3          	sb	zero,9(a5)
20000d48:	00867793          	andi	a5,a2,8
20000d4c:	3007a073          	csrs	mstatus,a5
20000d50:	8082                	ret
20000d52:	30502773          	csrr	a4,mtvec
20000d56:	200006b7          	lui	a3,0x20000
20000d5a:	9b71                	andi	a4,a4,-4
20000d5c:	972e                	add	a4,a4,a1
20000d5e:	1a468693          	addi	a3,a3,420 # 200001a4 <__unhandled_user_irq>
20000d62:	c314                	sw	a3,0(a4)
20000d64:	b7d1                	j	20000d28 <irq_add_tail_to_free_list+0x8a>
20000d66:	4681                	li	a3,0
20000d68:	20d6a6b3          	sh1add	a3,a3,a3
20000d6c:	75f1                	lui	a1,0xffffc
20000d6e:	20e6c6b3          	sh2add	a3,a3,a4
20000d72:	587d                	li	a6,-1
20000d74:	e4258713          	addi	a4,a1,-446 # ffffbe42 <__StackTop+0xdff79e42>
20000d78:	01068523          	sb	a6,10(a3)
20000d7c:	00e69423          	sh	a4,8(a3)
20000d80:	b765                	j	20000d28 <irq_add_tail_to_free_list+0x8a>
20000d82:	4685                	li	a3,1
20000d84:	b7d5                	j	20000d68 <irq_add_tail_to_free_list+0xca>
20000d86:	4689                	li	a3,2
20000d88:	b7c5                	j	20000d68 <irq_add_tail_to_free_list+0xca>
20000d8a:	468d                	li	a3,3
20000d8c:	bff1                	j	20000d68 <irq_add_tail_to_free_list+0xca>

20000d8e <lock_init>:
20000d8e:	200077b7          	lui	a5,0x20007
20000d92:	09078793          	addi	a5,a5,144 # 20007090 <_sw_spin_locks>
20000d96:	97ae                	add	a5,a5,a1
20000d98:	c11c                	sw	a5,0(a0)
20000d9a:	8082                	ret

20000d9c <runtime_init_mutex>:
20000d9c:	1101                	addi	sp,sp,-32
20000d9e:	cc22                	sw	s0,24(sp)
20000da0:	ca26                	sw	s1,20(sp)
20000da2:	20007437          	lui	s0,0x20007
20000da6:	200074b7          	lui	s1,0x20007
20000daa:	ce06                	sw	ra,28(sp)
20000dac:	ed440793          	addi	a5,s0,-300 # 20006ed4 <print_mutex>
20000db0:	edc48493          	addi	s1,s1,-292 # 20006edc <__pre_init_runtime_init_early_resets>
20000db4:	0297f863          	bgeu	a5,s1,20000de4 <runtime_init_mutex+0x48>
20000db8:	c84a                	sw	s2,16(sp)
20000dba:	c64e                	sw	s3,12(sp)
20000dbc:	ed440413          	addi	s0,s0,-300
20000dc0:	59fd                	li	s3,-1
20000dc2:	0ff00913          	li	s2,255
20000dc6:	401c                	lw	a5,0(s0)
20000dc8:	c39d                	beqz	a5,20000dee <runtime_init_mutex+0x52>
20000dca:	343d                	jal	200007f8 <next_striped_spin_lock_num>
20000dcc:	85aa                	mv	a1,a0
20000dce:	8522                	mv	a0,s0
20000dd0:	3f7d                	jal	20000d8e <lock_init>
20000dd2:	01241223          	sh	s2,4(s0)
20000dd6:	0330000f          	fence	rw,rw
20000dda:	0421                	addi	s0,s0,8
20000ddc:	fe9465e3          	bltu	s0,s1,20000dc6 <runtime_init_mutex+0x2a>
20000de0:	4942                	lw	s2,16(sp)
20000de2:	49b2                	lw	s3,12(sp)
20000de4:	40f2                	lw	ra,28(sp)
20000de6:	4462                	lw	s0,24(sp)
20000de8:	44d2                	lw	s1,20(sp)
20000dea:	6105                	addi	sp,sp,32
20000dec:	8082                	ret
20000dee:	3429                	jal	200007f8 <next_striped_spin_lock_num>
20000df0:	85aa                	mv	a1,a0
20000df2:	8522                	mv	a0,s0
20000df4:	3f69                	jal	20000d8e <lock_init>
20000df6:	01340223          	sb	s3,4(s0)
20000dfa:	0330000f          	fence	rw,rw
20000dfe:	0421                	addi	s0,s0,8
20000e00:	fc9463e3          	bltu	s0,s1,20000dc6 <runtime_init_mutex+0x2a>
20000e04:	bff1                	j	20000de0 <runtime_init_mutex+0x44>

20000e06 <sleep_until_callback>:
20000e06:	200076b7          	lui	a3,0x20007
20000e0a:	1086a783          	lw	a5,264(a3) # 20007108 <sleep_notifier>
20000e0e:	30047773          	csrrci	a4,mstatus,8
20000e12:	00379613          	slli	a2,a5,0x3
20000e16:	28c01633          	bset	a2,zero,a2
20000e1a:	9bf1                	andi	a5,a5,-4
20000e1c:	44c7a5af          	amoor.w.aq	a1,a2,(a5)
20000e20:	8df1                	and	a1,a1,a2
20000e22:	fded                	bnez	a1,20000e1c <sleep_until_callback+0x16>
20000e24:	0330000f          	fence	rw,rw
20000e28:	1086a783          	lw	a5,264(a3)
20000e2c:	0330000f          	fence	rw,rw
20000e30:	00078023          	sb	zero,0(a5)
20000e34:	00877793          	andi	a5,a4,8
20000e38:	3007a073          	csrs	mstatus,a5
20000e3c:	00102033          	sgtz	zero,ra
20000e40:	4501                	li	a0,0
20000e42:	4581                	li	a1,0
20000e44:	8082                	ret

20000e46 <alarm_pool_irq_handler>:
20000e46:	715d                	addi	sp,sp,-80
20000e48:	c686                	sw	ra,76(sp)
20000e4a:	c4a2                	sw	s0,72(sp)
20000e4c:	c2a6                	sw	s1,68(sp)
20000e4e:	c0ca                	sw	s2,64(sp)
20000e50:	de4e                	sw	s3,60(sp)
20000e52:	dc52                	sw	s4,56(sp)
20000e54:	da56                	sw	s5,52(sp)
20000e56:	d85a                	sw	s6,48(sp)
20000e58:	d65e                	sw	s7,44(sp)
20000e5a:	d462                	sw	s8,40(sp)
20000e5c:	d266                	sw	s9,36(sp)
20000e5e:	d06a                	sw	s10,32(sp)
20000e60:	ce6e                	sw	s11,28(sp)
20000e62:	be5027f3          	csrr	a5,0xbe5
20000e66:	01079713          	slli	a4,a5,0x10
20000e6a:	32074863          	bltz	a4,2000119a <alarm_pool_irq_handler+0x354>
20000e6e:	0047d993          	srli	s3,a5,0x4
20000e72:	1ff9f793          	andi	a5,s3,511
20000e76:	8389                	srli	a5,a5,0x2
20000e78:	0039f993          	andi	s3,s3,3
20000e7c:	29301a33          	bset	s4,zero,s3
20000e80:	400b0937          	lui	s2,0x400b0
20000e84:	34079663          	bnez	a5,200011d0 <alarm_pool_irq_handler+0x38a>
20000e88:	20007737          	lui	a4,0x20007
20000e8c:	2137c7b3          	sh2add	a5,a5,s3
20000e90:	0e470713          	addi	a4,a4,228 # 200070e4 <pools>
20000e94:	20e7c7b3          	sh2add	a5,a5,a4
20000e98:	0007aa83          	lw	s5,0(a5)
20000e9c:	678d                	lui	a5,0x3
20000e9e:	04478793          	addi	a5,a5,68 # 3044 <HeapSize+0x2844>
20000ea2:	97ca                	add	a5,a5,s2
20000ea4:	2129c9b3          	sh2add	s3,s3,s2
20000ea8:	008a8b13          	addi	s6,s5,8
20000eac:	0147a023          	sw	s4,0(a5)
20000eb0:	547d                	li	s0,-1
20000eb2:	54fd                	li	s1,-1
20000eb4:	008a9d03          	lh	s10,8(s5)
20000eb8:	03492e23          	sw	s4,60(s2) # 400b003c <__StackTop+0x2002e03c>
20000ebc:	080d5163          	bgez	s10,20000f3e <alarm_pool_irq_handler+0xf8>
20000ec0:	004ad783          	lhu	a5,4(s5)
20000ec4:	60579793          	sext.h	a5,a5
20000ec8:	1407dc63          	bgez	a5,20001020 <alarm_pool_irq_handler+0x1da>
20000ecc:	006ac783          	lbu	a5,6(s5)
20000ed0:	1e079463          	bnez	a5,200010b8 <alarm_pool_irq_handler+0x272>
20000ed4:	008a9683          	lh	a3,8(s5)
20000ed8:	0406c263          	bltz	a3,20000f1c <alarm_pool_irq_handler+0xd6>
20000edc:	014aa703          	lw	a4,20(s5)
20000ee0:	20d6a6b3          	sh1add	a3,a3,a3
20000ee4:	57fd                	li	a5,-1
20000ee6:	20e6e6b3          	sh3add	a3,a3,a4
20000eea:	0086ab83          	lw	s7,8(a3)
20000eee:	00c6ac03          	lw	s8,12(a3)
20000ef2:	2afb8163          	beq	s7,a5,20001194 <alarm_pool_irq_handler+0x34e>
20000ef6:	02892703          	lw	a4,40(s2)
20000efa:	0109a783          	lw	a5,16(s3)
20000efe:	40eb86b3          	sub	a3,s7,a4
20000f02:	8f99                	sub	a5,a5,a4
20000f04:	00f6f463          	bgeu	a3,a5,20000f0c <alarm_pool_irq_handler+0xc6>
20000f08:	0179a823          	sw	s7,16(s3)
20000f0c:	854a                	mv	a0,s2
20000f0e:	2565                	jal	200015b6 <timer_time_us_64>
20000f10:	0185c663          	blt	a1,s8,20000f1c <alarm_pool_irq_handler+0xd6>
20000f14:	fabc10e3          	bne	s8,a1,20000eb4 <alarm_pool_irq_handler+0x6e>
20000f18:	f9757ee3          	bgeu	a0,s7,20000eb4 <alarm_pool_irq_handler+0x6e>
20000f1c:	00102033          	sgtz	zero,ra
20000f20:	40b6                	lw	ra,76(sp)
20000f22:	4426                	lw	s0,72(sp)
20000f24:	4496                	lw	s1,68(sp)
20000f26:	4906                	lw	s2,64(sp)
20000f28:	59f2                	lw	s3,60(sp)
20000f2a:	5a62                	lw	s4,56(sp)
20000f2c:	5ad2                	lw	s5,52(sp)
20000f2e:	5b42                	lw	s6,48(sp)
20000f30:	5bb2                	lw	s7,44(sp)
20000f32:	5c22                	lw	s8,40(sp)
20000f34:	5c92                	lw	s9,36(sp)
20000f36:	5d02                	lw	s10,32(sp)
20000f38:	4df2                	lw	s11,28(sp)
20000f3a:	6161                	addi	sp,sp,80
20000f3c:	8082                	ret
20000f3e:	014aa783          	lw	a5,20(s5)
20000f42:	21ad2bb3          	sh1add	s7,s10,s10
20000f46:	854a                	mv	a0,s2
20000f48:	20fbebb3          	sh3add	s7,s7,a5
20000f4c:	00cbac03          	lw	s8,12(s7)
20000f50:	008bac83          	lw	s9,8(s7)
20000f54:	258d                	jal	200015b6 <timer_time_us_64>
20000f56:	f785c5e3          	blt	a1,s8,20000ec0 <alarm_pool_irq_handler+0x7a>
20000f5a:	1cbc0963          	beq	s8,a1,2000112c <alarm_pool_irq_handler+0x2e6>
20000f5e:	1c0c4b63          	bltz	s8,20001134 <alarm_pool_irq_handler+0x2ee>
20000f62:	010ba703          	lw	a4,16(s7)
20000f66:	200017b7          	lui	a5,0x20001
20000f6a:	e4678793          	addi	a5,a5,-442 # 20000e46 <alarm_pool_irq_handler>
20000f6e:	014ba583          	lw	a1,20(s7)
20000f72:	24f70563          	beq	a4,a5,200011bc <alarm_pool_irq_handler+0x376>
20000f76:	008a9783          	lh	a5,8(s5)
20000f7a:	002bd503          	lhu	a0,2(s7)
20000f7e:	07c2                	slli	a5,a5,0x10
20000f80:	8d5d                	or	a0,a0,a5
20000f82:	9702                	jalr	a4
20000f84:	872e                	mv	a4,a1
20000f86:	8daa                	mv	s11,a0
20000f88:	00ede7b3          	or	a5,s11,a4
20000f8c:	1a078463          	beqz	a5,20001134 <alarm_pool_irq_handler+0x2ee>
20000f90:	20075b63          	bgez	a4,200011a6 <alarm_pool_irq_handler+0x360>
20000f94:	41bc86b3          	sub	a3,s9,s11
20000f98:	00dcbcb3          	sltu	s9,s9,a3
20000f9c:	40ec07b3          	sub	a5,s8,a4
20000fa0:	419787b3          	sub	a5,a5,s9
20000fa4:	000b9703          	lh	a4,0(s7)
20000fa8:	00dba423          	sw	a3,8(s7)
20000fac:	00fba623          	sw	a5,12(s7)
20000fb0:	f00748e3          	bltz	a4,20000ec0 <alarm_pool_irq_handler+0x7a>
20000fb4:	014aa503          	lw	a0,20(s5)
20000fb8:	20e72833          	sh1add	a6,a4,a4
20000fbc:	00171613          	slli	a2,a4,0x1
20000fc0:	20a86833          	sh3add	a6,a6,a0
20000fc4:	00c82583          	lw	a1,12(a6)
20000fc8:	00882883          	lw	a7,8(a6)
20000fcc:	eeb7cae3          	blt	a5,a1,20000ec0 <alarm_pool_irq_handler+0x7a>
20000fd0:	00f59463          	bne	a1,a5,20000fd8 <alarm_pool_irq_handler+0x192>
20000fd4:	ef16e6e3          	bltu	a3,a7,20000ec0 <alarm_pool_irq_handler+0x7a>
20000fd8:	00ea9423          	sh	a4,8(s5)
20000fdc:	008a8813          	addi	a6,s5,8
20000fe0:	a031                	j	20000fec <alarm_pool_irq_handler+0x1a6>
20000fe2:	00862883          	lw	a7,8(a2) # 1008 <HeapSize+0x808>
20000fe6:	464c                	lw	a1,12(a2)
20000fe8:	00171613          	slli	a2,a4,0x1
20000fec:	963a                	add	a2,a2,a4
20000fee:	20a66633          	sh3add	a2,a2,a0
20000ff2:	00b7cd63          	blt	a5,a1,2000100c <alarm_pool_irq_handler+0x1c6>
20000ff6:	1ef58163          	beq	a1,a5,200011d8 <alarm_pool_irq_handler+0x392>
20000ffa:	00061703          	lh	a4,0(a2)
20000ffe:	8832                	mv	a6,a2
20001000:	20e72633          	sh1add	a2,a4,a4
20001004:	20a66633          	sh3add	a2,a2,a0
20001008:	fc075de3          	bgez	a4,20000fe2 <alarm_pool_irq_handler+0x19c>
2000100c:	00eb9023          	sh	a4,0(s7)
20001010:	01a81023          	sh	s10,0(a6)
20001014:	004ad783          	lhu	a5,4(s5)
20001018:	60579793          	sext.h	a5,a5
2000101c:	ea07c8e3          	bltz	a5,20000ecc <alarm_pool_irq_handler+0x86>
20001020:	010aa783          	lw	a5,16(s5)
20001024:	30047773          	csrrci	a4,mstatus,8
20001028:	00379693          	slli	a3,a5,0x3
2000102c:	28d016b3          	bset	a3,zero,a3
20001030:	9bf1                	andi	a5,a5,-4
20001032:	44d7a62f          	amoor.w.aq	a2,a3,(a5)
20001036:	8e75                	and	a2,a2,a3
20001038:	fe6d                	bnez	a2,20001032 <alarm_pool_irq_handler+0x1ec>
2000103a:	0330000f          	fence	rw,rw
2000103e:	004ad883          	lhu	a7,4(s5)
20001042:	57fd                	li	a5,-1
20001044:	00fa9223          	sh	a5,4(s5)
20001048:	60589893          	sext.h	a7,a7
2000104c:	010aa783          	lw	a5,16(s5)
20001050:	0330000f          	fence	rw,rw
20001054:	00078023          	sb	zero,0(a5)
20001058:	00877793          	andi	a5,a4,8
2000105c:	3007a073          	csrs	mstatus,a5
20001060:	e608c6e3          	bltz	a7,20000ecc <alarm_pool_irq_handler+0x86>
20001064:	014aa503          	lw	a0,20(s5)
20001068:	008a9703          	lh	a4,8(s5)
2000106c:	2118a833          	sh1add	a6,a7,a7
20001070:	20a86833          	sh3add	a6,a6,a0
20001074:	00882303          	lw	t1,8(a6)
20001078:	00c82603          	lw	a2,12(a6)
2000107c:	85da                	mv	a1,s6
2000107e:	00075a63          	bgez	a4,20001092 <alarm_pool_irq_handler+0x24c>
20001082:	a839                	j	200010a0 <alarm_pool_irq_handler+0x25a>
20001084:	0ec68c63          	beq	a3,a2,2000117c <alarm_pool_irq_handler+0x336>
20001088:	00079703          	lh	a4,0(a5)
2000108c:	85be                	mv	a1,a5
2000108e:	00074963          	bltz	a4,200010a0 <alarm_pool_irq_handler+0x25a>
20001092:	20e727b3          	sh1add	a5,a4,a4
20001096:	20a7e7b3          	sh3add	a5,a5,a0
2000109a:	47d4                	lw	a3,12(a5)
2000109c:	fed654e3          	bge	a2,a3,20001084 <alarm_pool_irq_handler+0x23e>
200010a0:	01159023          	sh	a7,0(a1)
200010a4:	00081883          	lh	a7,0(a6)
200010a8:	00e81023          	sh	a4,0(a6)
200010ac:	fa08dee3          	bgez	a7,20001068 <alarm_pool_irq_handler+0x222>
200010b0:	006ac783          	lbu	a5,6(s5)
200010b4:	e20780e3          	beqz	a5,20000ed4 <alarm_pool_irq_handler+0x8e>
200010b8:	000a8323          	sb	zero,6(s5)
200010bc:	008a9703          	lh	a4,8(s5)
200010c0:	557d                	li	a0,-1
200010c2:	835a                	mv	t1,s6
200010c4:	e4a70ce3          	beq	a4,a0,20000f1c <alarm_pool_irq_handler+0xd6>
200010c8:	014aa883          	lw	a7,20(s5)
200010cc:	20e727b3          	sh1add	a5,a4,a4
200010d0:	86ba                	mv	a3,a4
200010d2:	2117e7b3          	sh3add	a5,a5,a7
200010d6:	0027d603          	lhu	a2,2(a5)
200010da:	85ba                	mv	a1,a4
200010dc:	883a                	mv	a6,a4
200010de:	60561613          	sext.h	a2,a2
200010e2:	00079703          	lh	a4,0(a5)
200010e6:	02064363          	bltz	a2,2000110c <alarm_pool_irq_handler+0x2c6>
200010ea:	833e                	mv	t1,a5
200010ec:	dea706e3          	beq	a4,a0,20000ed8 <alarm_pool_irq_handler+0x92>
200010f0:	20e727b3          	sh1add	a5,a4,a4
200010f4:	2117e7b3          	sh3add	a5,a5,a7
200010f8:	0027d603          	lhu	a2,2(a5)
200010fc:	85ba                	mv	a1,a4
200010fe:	883a                	mv	a6,a4
20001100:	60561613          	sext.h	a2,a2
20001104:	00079703          	lh	a4,0(a5)
20001108:	fe0651e3          	bgez	a2,200010ea <alarm_pool_irq_handler+0x2a4>
2000110c:	c780                	sw	s0,8(a5)
2000110e:	c7c4                	sw	s1,12(a5)
20001110:	00d58a63          	beq	a1,a3,20001124 <alarm_pool_irq_handler+0x2de>
20001114:	00e31023          	sh	a4,0(t1) # 1000 <HeapSize+0x800>
20001118:	008ad683          	lhu	a3,8(s5)
2000111c:	00d79023          	sh	a3,0(a5)
20001120:	00ba9423          	sh	a1,8(s5)
20001124:	86c2                	mv	a3,a6
20001126:	fca715e3          	bne	a4,a0,200010f0 <alarm_pool_irq_handler+0x2aa>
2000112a:	b37d                	j	20000ed8 <alarm_pool_irq_handler+0x92>
2000112c:	d9956ae3          	bltu	a0,s9,20000ec0 <alarm_pool_irq_handler+0x7a>
20001130:	e20c59e3          	bgez	s8,20000f62 <alarm_pool_irq_handler+0x11c>
20001134:	000bd703          	lhu	a4,0(s7)
20001138:	010aa783          	lw	a5,16(s5)
2000113c:	00ea9423          	sh	a4,8(s5)
20001140:	30047773          	csrrci	a4,mstatus,8
20001144:	00379693          	slli	a3,a5,0x3
20001148:	28d016b3          	bset	a3,zero,a3
2000114c:	9bf1                	andi	a5,a5,-4
2000114e:	44d7a62f          	amoor.w.aq	a2,a3,(a5)
20001152:	8e75                	and	a2,a2,a3
20001154:	fe6d                	bnez	a2,2000114e <alarm_pool_irq_handler+0x308>
20001156:	0330000f          	fence	rw,rw
2000115a:	002ad683          	lhu	a3,2(s5)
2000115e:	010aa783          	lw	a5,16(s5)
20001162:	00db9023          	sh	a3,0(s7)
20001166:	01aa9123          	sh	s10,2(s5)
2000116a:	0330000f          	fence	rw,rw
2000116e:	00078023          	sb	zero,0(a5)
20001172:	00877793          	andi	a5,a4,8
20001176:	3007a073          	csrs	mstatus,a5
2000117a:	b399                	j	20000ec0 <alarm_pool_irq_handler+0x7a>
2000117c:	4794                	lw	a3,8(a5)
2000117e:	f0d375e3          	bgeu	t1,a3,20001088 <alarm_pool_irq_handler+0x242>
20001182:	01159023          	sh	a7,0(a1)
20001186:	00081883          	lh	a7,0(a6)
2000118a:	00e81023          	sh	a4,0(a6)
2000118e:	ec08dde3          	bgez	a7,20001068 <alarm_pool_irq_handler+0x222>
20001192:	bf39                	j	200010b0 <alarm_pool_irq_handler+0x26a>
20001194:	d77c11e3          	bne	s8,s7,20000ef6 <alarm_pool_irq_handler+0xb0>
20001198:	bb95                	j	20000f0c <alarm_pool_irq_handler+0xc6>
2000119a:	4a05                	li	s4,1
2000119c:	87d2                	mv	a5,s4
2000119e:	4981                	li	s3,0
200011a0:	400b8937          	lui	s2,0x400b8
200011a4:	b1d5                	j	20000e88 <alarm_pool_irq_handler+0x42>
200011a6:	854a                	mv	a0,s2
200011a8:	c63a                	sw	a4,12(sp)
200011aa:	2131                	jal	200015b6 <timer_time_us_64>
200011ac:	4732                	lw	a4,12(sp)
200011ae:	01b506b3          	add	a3,a0,s11
200011b2:	00a6b7b3          	sltu	a5,a3,a0
200011b6:	972e                	add	a4,a4,a1
200011b8:	97ba                	add	a5,a5,a4
200011ba:	b3ed                	j	20000fa4 <alarm_pool_irq_handler+0x15e>
200011bc:	499c                	lw	a5,16(a1)
200011be:	852e                	mv	a0,a1
200011c0:	c62e                	sw	a1,12(sp)
200011c2:	9782                	jalr	a5
200011c4:	d925                	beqz	a0,20001134 <alarm_pool_irq_handler+0x2ee>
200011c6:	45b2                	lw	a1,12(sp)
200011c8:	0005ad83          	lw	s11,0(a1)
200011cc:	41d8                	lw	a4,4(a1)
200011ce:	bb6d                	j	20000f88 <alarm_pool_irq_handler+0x142>
200011d0:	4785                	li	a5,1
200011d2:	400b8937          	lui	s2,0x400b8
200011d6:	b94d                	j	20000e88 <alarm_pool_irq_handler+0x42>
200011d8:	e316f1e3          	bgeu	a3,a7,20000ffa <alarm_pool_irq_handler+0x1b4>
200011dc:	bd05                	j	2000100c <alarm_pool_irq_handler+0x1c6>

200011de <runtime_init_default_alarm_pool>:
200011de:	1101                	addi	sp,sp,-32
200011e0:	cc22                	sw	s0,24(sp)
200011e2:	20007437          	lui	s0,0x20007
200011e6:	ea040413          	addi	s0,s0,-352 # 20006ea0 <default_alarm_pool>
200011ea:	481c                	lw	a5,16(s0)
200011ec:	ce06                	sw	ra,28(sp)
200011ee:	cb91                	beqz	a5,20001202 <runtime_init_default_alarm_pool+0x24>
200011f0:	4462                	lw	s0,24(sp)
200011f2:	40f2                	lw	ra,28(sp)
200011f4:	20007537          	lui	a0,0x20007
200011f8:	10850513          	addi	a0,a0,264 # 20007108 <sleep_notifier>
200011fc:	45a9                	li	a1,10
200011fe:	6105                	addi	sp,sp,32
20001200:	b679                	j	20000d8e <lock_init>
20001202:	458d                	li	a1,3
20001204:	400b0537          	lui	a0,0x400b0
20001208:	ca26                	sw	s1,20(sp)
2000120a:	c84a                	sw	s2,16(sp)
2000120c:	c64e                	sw	s3,12(sp)
2000120e:	c452                	sw	s4,8(sp)
20001210:	2659                	jal	20001596 <timer_hardware_alarm_claim>
20001212:	400b0a37          	lui	s4,0x400b0
20001216:	448d                	li	s1,3
20001218:	01442623          	sw	s4,12(s0)
2000121c:	ddcff0ef          	jal	200007f8 <next_striped_spin_lock_num>
20001220:	d00007b7          	lui	a5,0xd0000
20001224:	00940023          	sb	s1,0(s0)
20001228:	20007737          	lui	a4,0x20007
2000122c:	0007a803          	lw	a6,0(a5) # d0000000 <__StackTop+0xaff7e000>
20001230:	09070713          	addi	a4,a4,144 # 20007090 <_sw_spin_locks>
20001234:	485c                	lw	a5,20(s0)
20001236:	972a                	add	a4,a4,a0
20001238:	001106b7          	lui	a3,0x110
2000123c:	c818                	sw	a4,16(s0)
2000123e:	567d                	li	a2,-1
20001240:	16fd                	addi	a3,a3,-1 # 10ffff <HeapSize+0x10f7ff>
20001242:	45bd                	li	a1,15
20001244:	4709                	li	a4,2
20001246:	010400a3          	sb	a6,1(s0)
2000124a:	c414                	sw	a3,8(s0)
2000124c:	00b41123          	sh	a1,2(s0)
20001250:	00c41223          	sh	a2,4(s0)
20001254:	04e79423          	sh	a4,72(a5)
20001258:	4921                	li	s2,8
2000125a:	4f11                	li	t5,4
2000125c:	4e95                	li	t4,5
2000125e:	4e19                	li	t3,6
20001260:	431d                	li	t1,7
20001262:	48a5                	li	a7,9
20001264:	4829                	li	a6,10
20001266:	46b5                	li	a3,13
20001268:	4739                	li	a4,14
2000126a:	4985                	li	s3,1
2000126c:	452d                	li	a0,11
2000126e:	45b1                	li	a1,12
20001270:	06979023          	sh	s1,96(a5)
20001274:	07e79c23          	sh	t5,120(a5)
20001278:	09d79823          	sh	t4,144(a5)
2000127c:	0bc79423          	sh	t3,168(a5)
20001280:	0c679023          	sh	t1,192(a5)
20001284:	0f179823          	sh	a7,240(a5)
20001288:	11079423          	sh	a6,264(a5)
2000128c:	12a79023          	sh	a0,288(a5)
20001290:	12b79c23          	sh	a1,312(a5)
20001294:	14d79823          	sh	a3,336(a5)
20001298:	16e79423          	sh	a4,360(a5)
2000129c:	00c79023          	sh	a2,0(a5)
200012a0:	03379823          	sh	s3,48(a5)
200012a4:	0d279c23          	sh	s2,216(a5)
200012a8:	00079c23          	sh	zero,24(a5)
200012ac:	200015b7          	lui	a1,0x20001
200012b0:	032a2023          	sw	s2,32(s4) # 400b0020 <__StackTop+0x2002e020>
200012b4:	200077b7          	lui	a5,0x20007
200012b8:	8526                	mv	a0,s1
200012ba:	e4658593          	addi	a1,a1,-442 # 20000e46 <alarm_pool_irq_handler>
200012be:	0e87a823          	sw	s0,240(a5) # 200070f0 <pools+0xc>
200012c2:	de0ff0ef          	jal	200008a2 <irq_set_exclusive_handler>
200012c6:	85ce                	mv	a1,s3
200012c8:	8526                	mv	a0,s1
200012ca:	da2ff0ef          	jal	2000086c <irq_set_enabled>
200012ce:	400b27b7          	lui	a5,0x400b2
200012d2:	4462                	lw	s0,24(sp)
200012d4:	44d2                	lw	s1,20(sp)
200012d6:	49b2                	lw	s3,12(sp)
200012d8:	4a22                	lw	s4,8(sp)
200012da:	40f2                	lw	ra,28(sp)
200012dc:	0527a023          	sw	s2,64(a5) # 400b2040 <__StackTop+0x20030040>
200012e0:	4942                	lw	s2,16(sp)
200012e2:	20007537          	lui	a0,0x20007
200012e6:	10850513          	addi	a0,a0,264 # 20007108 <sleep_notifier>
200012ea:	45a9                	li	a1,10
200012ec:	6105                	addi	sp,sp,32
200012ee:	b445                	j	20000d8e <lock_init>

200012f0 <alarm_pool_add_alarm_at_force_in_context>:
200012f0:	87aa                	mv	a5,a0
200012f2:	4908                	lw	a0,16(a0)
200012f4:	30047873          	csrrci	a6,mstatus,8
200012f8:	00351893          	slli	a7,a0,0x3
200012fc:	291018b3          	bset	a7,zero,a7
20001300:	9971                	andi	a0,a0,-4
20001302:	4515232f          	amoor.w.aq	t1,a7,(a0)
20001306:	01137333          	and	t1,t1,a7
2000130a:	fe031ce3          	bnez	t1,20001302 <alarm_pool_add_alarm_at_force_in_context+0x12>
2000130e:	0330000f          	fence	rw,rw
20001312:	00279303          	lh	t1,2(a5)
20001316:	0147a883          	lw	a7,20(a5)
2000131a:	00887513          	andi	a0,a6,8
2000131e:	20632833          	sh1add	a6,t1,t1
20001322:	21186833          	sh3add	a6,a6,a7
20001326:	0107a883          	lw	a7,16(a5)
2000132a:	08034b63          	bltz	t1,200013c0 <alarm_pool_add_alarm_at_force_in_context+0xd0>
2000132e:	00085e03          	lhu	t3,0(a6)
20001332:	01c79123          	sh	t3,2(a5)
20001336:	0330000f          	fence	rw,rw
2000133a:	00088023          	sb	zero,0(a7) # 10000 <HeapSize+0xf800>
2000133e:	30052073          	csrs	mstatus,a0
20001342:	00285883          	lhu	a7,2(a6)
20001346:	4e05                	li	t3,1
20001348:	01031513          	slli	a0,t1,0x10
2000134c:	98f2                	add	a7,a7,t3
2000134e:	08c6                	slli	a7,a7,0x11
20001350:	0118d893          	srli	a7,a7,0x11
20001354:	0bc8f8b3          	maxu	a7,a7,t3
20001358:	00e82a23          	sw	a4,20(a6)
2000135c:	00d82823          	sw	a3,16(a6)
20001360:	00b82423          	sw	a1,8(a6)
20001364:	00c82623          	sw	a2,12(a6)
20001368:	01181123          	sh	a7,2(a6)
2000136c:	01156533          	or	a0,a0,a7
20001370:	4b98                	lw	a4,16(a5)
20001372:	300476f3          	csrrci	a3,mstatus,8
20001376:	00371613          	slli	a2,a4,0x3
2000137a:	28c01633          	bset	a2,zero,a2
2000137e:	9b71                	andi	a4,a4,-4
20001380:	44c725af          	amoor.w.aq	a1,a2,(a4)
20001384:	8df1                	and	a1,a1,a2
20001386:	fded                	bnez	a1,20001380 <alarm_pool_add_alarm_at_force_in_context+0x90>
20001388:	0330000f          	fence	rw,rw
2000138c:	0047d603          	lhu	a2,4(a5)
20001390:	4b98                	lw	a4,16(a5)
20001392:	00c81023          	sh	a2,0(a6)
20001396:	00679223          	sh	t1,4(a5)
2000139a:	0330000f          	fence	rw,rw
2000139e:	00070023          	sb	zero,0(a4)
200013a2:	0086f713          	andi	a4,a3,8
200013a6:	30072073          	csrs	mstatus,a4
200013aa:	0007c703          	lbu	a4,0(a5)
200013ae:	47dc                	lw	a5,12(a5)
200013b0:	6689                	lui	a3,0x2
200013b2:	04468693          	addi	a3,a3,68 # 2044 <HeapSize+0x1844>
200013b6:	28e01733          	bset	a4,zero,a4
200013ba:	97b6                	add	a5,a5,a3
200013bc:	c398                	sw	a4,0(a5)
200013be:	8082                	ret
200013c0:	0330000f          	fence	rw,rw
200013c4:	00088023          	sb	zero,0(a7)
200013c8:	30052073          	csrs	mstatus,a0
200013cc:	557d                	li	a0,-1
200013ce:	8082                	ret

200013d0 <alarm_pool_cancel_alarm>:
200013d0:	00a55703          	lhu	a4,10(a0)
200013d4:	4105d793          	srai	a5,a1,0x10
200013d8:	04e7d863          	bge	a5,a4,20001428 <alarm_pool_cancel_alarm+0x58>
200013dc:	4954                	lw	a3,20(a0)
200013de:	20f7a7b3          	sh1add	a5,a5,a5
200013e2:	4918                	lw	a4,16(a0)
200013e4:	20d7e7b3          	sh3add	a5,a5,a3
200013e8:	300476f3          	csrrci	a3,mstatus,8
200013ec:	00371613          	slli	a2,a4,0x3
200013f0:	28c01633          	bset	a2,zero,a2
200013f4:	9b71                	andi	a4,a4,-4
200013f6:	44c7282f          	amoor.w.aq	a6,a2,(a4)
200013fa:	00c87833          	and	a6,a6,a2
200013fe:	fe081ce3          	bnez	a6,200013f6 <alarm_pool_cancel_alarm+0x26>
20001402:	0330000f          	fence	rw,rw
20001406:	0027d603          	lhu	a2,2(a5)
2000140a:	0805c5b3          	zext.h	a1,a1
2000140e:	0086f713          	andi	a4,a3,8
20001412:	080646b3          	zext.h	a3,a2
20001416:	00b60b63          	beq	a2,a1,2000142c <alarm_pool_cancel_alarm+0x5c>
2000141a:	491c                	lw	a5,16(a0)
2000141c:	0330000f          	fence	rw,rw
20001420:	00078023          	sb	zero,0(a5)
20001424:	30072073          	csrs	mstatus,a4
20001428:	4501                	li	a0,0
2000142a:	8082                	ret
2000142c:	28f69693          	bseti	a3,a3,0xf
20001430:	00d79123          	sh	a3,2(a5)
20001434:	4785                	li	a5,1
20001436:	00f50323          	sb	a5,6(a0)
2000143a:	4914                	lw	a3,16(a0)
2000143c:	0330000f          	fence	rw,rw
20001440:	00068023          	sb	zero,0(a3)
20001444:	30072073          	csrs	mstatus,a4
20001448:	00054683          	lbu	a3,0(a0)
2000144c:	4558                	lw	a4,12(a0)
2000144e:	6609                	lui	a2,0x2
20001450:	04460613          	addi	a2,a2,68 # 2044 <HeapSize+0x1844>
20001454:	28d016b3          	bset	a3,zero,a3
20001458:	9732                	add	a4,a4,a2
2000145a:	853e                	mv	a0,a5
2000145c:	c314                	sw	a3,0(a4)
2000145e:	8082                	ret

20001460 <best_effort_wfe_or_timeout>:
20001460:	1141                	addi	sp,sp,-16
20001462:	c422                	sw	s0,8(sp)
20001464:	c226                	sw	s1,4(sp)
20001466:	c606                	sw	ra,12(sp)
20001468:	84aa                	mv	s1,a0
2000146a:	842e                	mv	s0,a1
2000146c:	be502773          	csrr	a4,0xbe5
20001470:	01071793          	slli	a5,a4,0x10
20001474:	0407da63          	bgez	a5,200014c8 <best_effort_wfe_or_timeout+0x68>
20001478:	c04a                	sw	s2,0(sp)
2000147a:	20007937          	lui	s2,0x20007
2000147e:	ea090793          	addi	a5,s2,-352 # 20006ea0 <default_alarm_pool>
20001482:	0007c703          	lbu	a4,0(a5)
20001486:	47dc                	lw	a5,12(a5)
20001488:	20f74733          	sh2add	a4,a4,a5
2000148c:	579c                	lw	a5,40(a5)
2000148e:	4b18                	lw	a4,16(a4)
20001490:	40f506b3          	sub	a3,a0,a5
20001494:	8f1d                	sub	a4,a4,a5
20001496:	04e6ed63          	bltu	a3,a4,200014f0 <best_effort_wfe_or_timeout+0x90>
2000149a:	00002033          	sltz	zero,zero
2000149e:	400b07b7          	lui	a5,0x400b0
200014a2:	53d8                	lw	a4,36(a5)
200014a4:	4501                	li	a0,0
200014a6:	0ab76963          	bltu	a4,a1,20001558 <best_effort_wfe_or_timeout+0xf8>
200014aa:	579c                	lw	a5,40(a5)
200014ac:	8f0d                	sub	a4,a4,a1
200014ae:	4902                	lw	s2,0(sp)
200014b0:	0097b533          	sltu	a0,a5,s1
200014b4:	00e03733          	snez	a4,a4
200014b8:	00153513          	seqz	a0,a0
200014bc:	8d59                	or	a0,a0,a4
200014be:	40b2                	lw	ra,12(sp)
200014c0:	4422                	lw	s0,8(sp)
200014c2:	4492                	lw	s1,4(sp)
200014c4:	0141                	addi	sp,sp,16
200014c6:	8082                	ret
200014c8:	400b07b7          	lui	a5,0x400b0
200014cc:	53d8                	lw	a4,36(a5)
200014ce:	4501                	li	a0,0
200014d0:	feb767e3          	bltu	a4,a1,200014be <best_effort_wfe_or_timeout+0x5e>
200014d4:	579c                	lw	a5,40(a5)
200014d6:	40b2                	lw	ra,12(sp)
200014d8:	4422                	lw	s0,8(sp)
200014da:	0097b533          	sltu	a0,a5,s1
200014de:	8f0d                	sub	a4,a4,a1
200014e0:	00e03733          	snez	a4,a4
200014e4:	00153513          	seqz	a0,a0
200014e8:	4492                	lw	s1,4(sp)
200014ea:	8d59                	or	a0,a0,a4
200014ec:	0141                	addi	sp,sp,16
200014ee:	8082                	ret
200014f0:	28d9                	jal	200015c6 <time_us_64>
200014f2:	40a48533          	sub	a0,s1,a0
200014f6:	00a4b533          	sltu	a0,s1,a0
200014fa:	40b405b3          	sub	a1,s0,a1
200014fe:	8d89                	sub	a1,a1,a0
20001500:	0605c263          	bltz	a1,20001564 <best_effort_wfe_or_timeout+0x104>
20001504:	200016b7          	lui	a3,0x20001
20001508:	85a6                	mv	a1,s1
2000150a:	e0668693          	addi	a3,a3,-506 # 20000e06 <sleep_until_callback>
2000150e:	4701                	li	a4,0
20001510:	8622                	mv	a2,s0
20001512:	ea090513          	addi	a0,s2,-352
20001516:	3be9                	jal	200012f0 <alarm_pool_add_alarm_at_force_in_context>
20001518:	85aa                	mv	a1,a0
2000151a:	04a05563          	blez	a0,20001564 <best_effort_wfe_or_timeout+0x104>
2000151e:	400b07b7          	lui	a5,0x400b0
20001522:	53d8                	lw	a4,36(a5)
20001524:	04876a63          	bltu	a4,s0,20001578 <best_effort_wfe_or_timeout+0x118>
20001528:	579c                	lw	a5,40(a5)
2000152a:	0497e563          	bltu	a5,s1,20001574 <best_effort_wfe_or_timeout+0x114>
2000152e:	ea090513          	addi	a0,s2,-352
20001532:	3d79                	jal	200013d0 <alarm_pool_cancel_alarm>
20001534:	400b0737          	lui	a4,0x400b0
20001538:	535c                	lw	a5,36(a4)
2000153a:	4501                	li	a0,0
2000153c:	0087ee63          	bltu	a5,s0,20001558 <best_effort_wfe_or_timeout+0xf8>
20001540:	5714                	lw	a3,40(a4)
20001542:	8f81                	sub	a5,a5,s0
20001544:	00f03733          	snez	a4,a5
20001548:	0096b7b3          	sltu	a5,a3,s1
2000154c:	0017b793          	seqz	a5,a5
20001550:	4902                	lw	s2,0(sp)
20001552:	00f76533          	or	a0,a4,a5
20001556:	b7a5                	j	200014be <best_effort_wfe_or_timeout+0x5e>
20001558:	40b2                	lw	ra,12(sp)
2000155a:	4422                	lw	s0,8(sp)
2000155c:	4902                	lw	s2,0(sp)
2000155e:	4492                	lw	s1,4(sp)
20001560:	0141                	addi	sp,sp,16
20001562:	8082                	ret
20001564:	400b0737          	lui	a4,0x400b0
20001568:	535c                	lw	a5,36(a4)
2000156a:	0087fa63          	bgeu	a5,s0,2000157e <best_effort_wfe_or_timeout+0x11e>
2000156e:	4902                	lw	s2,0(sp)
20001570:	4501                	li	a0,0
20001572:	b7b1                	j	200014be <best_effort_wfe_or_timeout+0x5e>
20001574:	fa871de3          	bne	a4,s0,2000152e <best_effort_wfe_or_timeout+0xce>
20001578:	00002033          	sltz	zero,zero
2000157c:	bf4d                	j	2000152e <best_effort_wfe_or_timeout+0xce>
2000157e:	5718                	lw	a4,40(a4)
20001580:	8f81                	sub	a5,a5,s0
20001582:	00f037b3          	snez	a5,a5
20001586:	00973733          	sltu	a4,a4,s1
2000158a:	00173713          	seqz	a4,a4
2000158e:	4902                	lw	s2,0(sp)
20001590:	00e7e533          	or	a0,a5,a4
20001594:	b72d                	j	200014be <best_effort_wfe_or_timeout+0x5e>

20001596 <timer_hardware_alarm_claim>:
20001596:	bff487b7          	lui	a5,0xbff48
2000159a:	97aa                	add	a5,a5,a0
2000159c:	20007537          	lui	a0,0x20007
200015a0:	0017b793          	seqz	a5,a5
200015a4:	10c50513          	addi	a0,a0,268 # 2000710c <claimed>
200015a8:	20007637          	lui	a2,0x20007
200015ac:	953e                	add	a0,a0,a5
200015ae:	88860613          	addi	a2,a2,-1912 # 20006888 <strlen+0xf6>
200015b2:	8f8ff06f          	j	200006aa <hw_claim_or_assert>

200015b6 <timer_time_us_64>:
200015b6:	514c                	lw	a1,36(a0)
200015b8:	87aa                	mv	a5,a0
200015ba:	5788                	lw	a0,40(a5)
200015bc:	872e                	mv	a4,a1
200015be:	53cc                	lw	a1,36(a5)
200015c0:	feb71de3          	bne	a4,a1,200015ba <timer_time_us_64+0x4>
200015c4:	8082                	ret

200015c6 <time_us_64>:
200015c6:	400b07b7          	lui	a5,0x400b0
200015ca:	53cc                	lw	a1,36(a5)
200015cc:	5788                	lw	a0,40(a5)
200015ce:	872e                	mv	a4,a1
200015d0:	53cc                	lw	a1,36(a5)
200015d2:	fee59de3          	bne	a1,a4,200015cc <time_us_64+0x6>
200015d6:	8082                	ret

200015d8 <busy_wait_us>:
200015d8:	400b0737          	lui	a4,0x400b0
200015dc:	535c                	lw	a5,36(a4)
200015de:	02872803          	lw	a6,40(a4) # 400b0028 <__StackTop+0x2002e028>
200015e2:	86be                	mv	a3,a5
200015e4:	535c                	lw	a5,36(a4)
200015e6:	fed79ce3          	bne	a5,a3,200015de <busy_wait_us+0x6>
200015ea:	01050633          	add	a2,a0,a6
200015ee:	95be                	add	a1,a1,a5
200015f0:	00a63733          	sltu	a4,a2,a0
200015f4:	972e                	add	a4,a4,a1
200015f6:	02f76c63          	bltu	a4,a5,2000162e <busy_wait_us+0x56>
200015fa:	02e78863          	beq	a5,a4,2000162a <busy_wait_us+0x52>
200015fe:	400b07b7          	lui	a5,0x400b0
20001602:	53dc                	lw	a5,36(a5)
20001604:	00e7f763          	bgeu	a5,a4,20001612 <busy_wait_us+0x3a>
20001608:	400b06b7          	lui	a3,0x400b0
2000160c:	52dc                	lw	a5,36(a3)
2000160e:	fee7efe3          	bltu	a5,a4,2000160c <busy_wait_us+0x34>
20001612:	00e79b63          	bne	a5,a4,20001628 <busy_wait_us+0x50>
20001616:	400b0737          	lui	a4,0x400b0
2000161a:	a021                	j	20001622 <busy_wait_us+0x4a>
2000161c:	5354                	lw	a3,36(a4)
2000161e:	00f69563          	bne	a3,a5,20001628 <busy_wait_us+0x50>
20001622:	5714                	lw	a3,40(a4)
20001624:	fec6ece3          	bltu	a3,a2,2000161c <busy_wait_us+0x44>
20001628:	8082                	ret
2000162a:	fd067ae3          	bgeu	a2,a6,200015fe <busy_wait_us+0x26>
2000162e:	400b07b7          	lui	a5,0x400b0
20001632:	53dc                	lw	a5,36(a5)
20001634:	577d                	li	a4,-1
20001636:	863a                	mv	a2,a4
20001638:	fce798e3          	bne	a5,a4,20001608 <busy_wait_us+0x30>
2000163c:	863e                	mv	a2,a5
2000163e:	bfe1                	j	20001616 <busy_wait_us+0x3e>

20001640 <uart_init>:
20001640:	1101                	addi	sp,sp,-32
20001642:	cc22                	sw	s0,24(sp)
20001644:	842a                	mv	s0,a0
20001646:	4519                	li	a0,6
20001648:	ca26                	sw	s1,20(sp)
2000164a:	ce06                	sw	ra,28(sp)
2000164c:	84ae                	mv	s1,a1
2000164e:	2add                	jal	20001844 <clock_get_hz>
20001650:	c155                	beqz	a0,200016f4 <uart_init+0xb4>
20001652:	c84a                	sw	s2,16(sp)
20001654:	c64e                	sw	s3,12(sp)
20001656:	400787b7          	lui	a5,0x40078
2000165a:	04000737          	lui	a4,0x4000
2000165e:	0ef40d63          	beq	s0,a5,20001758 <uart_init+0x118>
20001662:	400227b7          	lui	a5,0x40022
20001666:	c398                	sw	a4,0(a5)
20001668:	400206b7          	lui	a3,0x40020
2000166c:	400237b7          	lui	a5,0x40023
20001670:	c398                	sw	a4,0(a5)
20001672:	06a1                	addi	a3,a3,8 # 40020008 <__StackTop+0x1ff9e008>
20001674:	429c                	lw	a5,0(a3)
20001676:	40f777b3          	andn	a5,a4,a5
2000167a:	ffed                	bnez	a5,20001674 <uart_init+0x34>
2000167c:	bff887b7          	lui	a5,0xbff88
20001680:	97a2                	add	a5,a5,s0
20001682:	80c18713          	addi	a4,gp,-2036 # 20007110 <uart_char_to_line_feed>
20001686:	0017b793          	seqz	a5,a5
2000168a:	20e7a7b3          	sh1add	a5,a5,a4
2000168e:	4519                	li	a0,6
20001690:	10000713          	li	a4,256
20001694:	00e79023          	sh	a4,0(a5) # bff88000 <__StackTop+0x9ff06000>
20001698:	2275                	jal	20001844 <clock_get_hz>
2000169a:	00351793          	slli	a5,a0,0x3
2000169e:	0297d7b3          	divu	a5,a5,s1
200016a2:	0785                	addi	a5,a5,1
200016a4:	0077d713          	srli	a4,a5,0x7
200016a8:	eb39                	bnez	a4,200016fe <uart_init+0xbe>
200016aa:	04000993          	li	s3,64
200016ae:	4685                	li	a3,1
200016b0:	d054                	sw	a3,36(s0)
200016b2:	d418                	sw	a4,40(s0)
200016b4:	03042903          	lw	s2,48(s0)
200016b8:	00197793          	andi	a5,s2,1
200016bc:	e3bd                	bnez	a5,20001722 <uart_init+0xe2>
200016be:	6485                	lui	s1,0x1
200016c0:	02c48493          	addi	s1,s1,44 # 102c <HeapSize+0x82c>
200016c4:	94a2                	add	s1,s1,s0
200016c6:	545c                	lw	a5,44(s0)
200016c8:	0004a023          	sw	zero,0(s1)
200016cc:	03242823          	sw	s2,48(s0)
200016d0:	4519                	li	a0,6
200016d2:	2a8d                	jal	20001844 <clock_get_hz>
200016d4:	545c                	lw	a5,44(s0)
200016d6:	050a                	slli	a0,a0,0x2
200016d8:	03355533          	divu	a0,a0,s3
200016dc:	0707c793          	xori	a5,a5,112
200016e0:	07e7f793          	andi	a5,a5,126
200016e4:	c09c                	sw	a5,0(s1)
200016e6:	30100693          	li	a3,769
200016ea:	4942                	lw	s2,16(sp)
200016ec:	49b2                	lw	s3,12(sp)
200016ee:	470d                	li	a4,3
200016f0:	d814                	sw	a3,48(s0)
200016f2:	c438                	sw	a4,72(s0)
200016f4:	40f2                	lw	ra,28(sp)
200016f6:	4462                	lw	s0,24(sp)
200016f8:	44d2                	lw	s1,20(sp)
200016fa:	6105                	addi	sp,sp,32
200016fc:	8082                	ret
200016fe:	6641                	lui	a2,0x10
20001700:	1679                	addi	a2,a2,-2 # fffe <HeapSize+0xf7fe>
20001702:	66c1                	lui	a3,0x10
20001704:	04e67d63          	bgeu	a2,a4,2000175e <uart_init+0x11e>
20001708:	16fd                	addi	a3,a3,-1 # ffff <HeapSize+0xf7ff>
2000170a:	d054                	sw	a3,36(s0)
2000170c:	4701                	li	a4,0
2000170e:	d418                	sw	a4,40(s0)
20001710:	03042903          	lw	s2,48(s0)
20001714:	004009b7          	lui	s3,0x400
20001718:	fc098993          	addi	s3,s3,-64 # 3fffc0 <HeapSize+0x3ff7c0>
2000171c:	00197793          	andi	a5,s2,1
20001720:	dfd9                	beqz	a5,200016be <uart_init+0x7e>
20001722:	678d                	lui	a5,0x3
20001724:	03078793          	addi	a5,a5,48 # 3030 <HeapSize+0x2830>
20001728:	97a2                	add	a5,a5,s0
2000172a:	30100713          	li	a4,769
2000172e:	c398                	sw	a4,0(a5)
20001730:	5044                	lw	s1,36(s0)
20001732:	541c                	lw	a5,40(s0)
20001734:	4519                	li	a0,6
20001736:	049a                	slli	s1,s1,0x6
20001738:	94be                	add	s1,s1,a5
2000173a:	2229                	jal	20001844 <clock_get_hz>
2000173c:	8f2b87b7          	lui	a5,0x8f2b8
20001740:	b7578793          	addi	a5,a5,-1163 # 8f2b7b75 <__StackTop+0x6f235b75>
20001744:	02f537b3          	mulhu	a5,a0,a5
20001748:	00a49513          	slli	a0,s1,0xa
2000174c:	4581                	li	a1,0
2000174e:	83ad                	srli	a5,a5,0xb
20001750:	02f55533          	divu	a0,a0,a5
20001754:	3551                	jal	200015d8 <busy_wait_us>
20001756:	b7a5                	j	200016be <uart_init+0x7e>
20001758:	08000737          	lui	a4,0x8000
2000175c:	b719                	j	20001662 <uart_init+0x22>
2000175e:	8385                	srli	a5,a5,0x1
20001760:	03f7f793          	andi	a5,a5,63
20001764:	00671993          	slli	s3,a4,0x6
20001768:	86ba                	mv	a3,a4
2000176a:	99be                	add	s3,s3,a5
2000176c:	873e                	mv	a4,a5
2000176e:	b789                	j	200016b0 <uart_init+0x70>

20001770 <clock_configure_undivided>:
20001770:	400107b7          	lui	a5,0x40010
20001774:	20a52733          	sh1add	a4,a0,a0
20001778:	20f74733          	sh2add	a4,a4,a5
2000177c:	00472803          	lw	a6,4(a4) # 8000004 <HeapSize+0x7fff804>
20001780:	67c1                	lui	a5,0x10
20001782:	00f87363          	bgeu	a6,a5,20001788 <clock_configure_undivided+0x18>
20001786:	c35c                	sw	a5,4(a4)
20001788:	ffc50813          	addi	a6,a0,-4
2000178c:	4785                	li	a5,1
2000178e:	0707f663          	bgeu	a5,a6,200017fa <clock_configure_undivided+0x8a>
20001792:	20007337          	lui	t1,0x20007
20001796:	0bc30313          	addi	t1,t1,188 # 200070bc <configured_freq>
2000179a:	206547b3          	sh2add	a5,a0,t1
2000179e:	0007a883          	lw	a7,0(a5) # 10000 <HeapSize+0xf800>
200017a2:	678d                	lui	a5,0x3
200017a4:	97ba                	add	a5,a5,a4
200017a6:	28b01e13          	bseti	t3,zero,0xb
200017aa:	01c7a023          	sw	t3,0(a5) # 3000 <HeapSize+0x2800>
200017ae:	050a                	slli	a0,a0,0x2
200017b0:	02089963          	bnez	a7,200017e2 <clock_configure_undivided+0x72>
200017b4:	00072883          	lw	a7,0(a4)
200017b8:	0616                	slli	a2,a2,0x5
200017ba:	6785                	lui	a5,0x1
200017bc:	01164633          	xor	a2,a2,a7
200017c0:	0e067613          	andi	a2,a2,224
200017c4:	97ba                	add	a5,a5,a4
200017c6:	c390                	sw	a2,0(a5)
200017c8:	4605                	li	a2,1
200017ca:	07067163          	bgeu	a2,a6,2000182c <clock_configure_undivided+0xbc>
200017ce:	6789                	lui	a5,0x2
200017d0:	97ba                	add	a5,a5,a4
200017d2:	28b01613          	bseti	a2,zero,0xb
200017d6:	c390                	sw	a2,0(a5)
200017d8:	951a                	add	a0,a0,t1
200017da:	67c1                	lui	a5,0x10
200017dc:	c114                	sw	a3,0(a0)
200017de:	c35c                	sw	a5,4(a4)
200017e0:	8082                	ret
200017e2:	01432783          	lw	a5,20(t1)
200017e6:	0317d7b3          	divu	a5,a5,a7
200017ea:	0785                	addi	a5,a5,1 # 10001 <HeapSize+0xf801>
200017ec:	20f7a7b3          	sh1add	a5,a5,a5
200017f0:	ffe78793          	addi	a5,a5,-2
200017f4:	fe07dee3          	bgez	a5,200017f0 <clock_configure_undivided+0x80>
200017f8:	bf75                	j	200017b4 <clock_configure_undivided+0x44>
200017fa:	f8f59ce3          	bne	a1,a5,20001792 <clock_configure_undivided+0x22>
200017fe:	678d                	lui	a5,0x3
20001800:	97ba                	add	a5,a5,a4
20001802:	480d                	li	a6,3
20001804:	0107a023          	sw	a6,0(a5) # 3000 <HeapSize+0x2800>
20001808:	471c                	lw	a5,8(a4)
2000180a:	8b85                	andi	a5,a5,1
2000180c:	dff5                	beqz	a5,20001808 <clock_configure_undivided+0x98>
2000180e:	00072803          	lw	a6,0(a4)
20001812:	0616                	slli	a2,a2,0x5
20001814:	6785                	lui	a5,0x1
20001816:	01064633          	xor	a2,a2,a6
2000181a:	0e067613          	andi	a2,a2,224
2000181e:	97ba                	add	a5,a5,a4
20001820:	20007337          	lui	t1,0x20007
20001824:	050a                	slli	a0,a0,0x2
20001826:	c390                	sw	a2,0(a5)
20001828:	0bc30313          	addi	t1,t1,188 # 200070bc <configured_freq>
2000182c:	00072803          	lw	a6,0(a4)
20001830:	28b01633          	bset	a2,zero,a1
20001834:	0105c5b3          	xor	a1,a1,a6
20001838:	898d                	andi	a1,a1,3
2000183a:	c38c                	sw	a1,0(a5)
2000183c:	471c                	lw	a5,8(a4)
2000183e:	8ff1                	and	a5,a5,a2
20001840:	dff5                	beqz	a5,2000183c <clock_configure_undivided+0xcc>
20001842:	b771                	j	200017ce <clock_configure_undivided+0x5e>

20001844 <clock_get_hz>:
20001844:	200077b7          	lui	a5,0x20007
20001848:	0bc78793          	addi	a5,a5,188 # 200070bc <configured_freq>
2000184c:	20f54533          	sh2add	a0,a0,a5
20001850:	4108                	lw	a0,0(a0)
20001852:	8082                	ret

20001854 <pll_init>:
20001854:	00b727b7          	lui	a5,0xb72
20001858:	b0078793          	addi	a5,a5,-1280 # b71b00 <HeapSize+0xb71300>
2000185c:	02b7d7b3          	divu	a5,a5,a1
20001860:	00052883          	lw	a7,0(a0)
20001864:	06c2                	slli	a3,a3,0x10
20001866:	0732                	slli	a4,a4,0xc
20001868:	00e6e833          	or	a6,a3,a4
2000186c:	02f65633          	divu	a2,a2,a5
20001870:	0408c463          	bltz	a7,200018b8 <pll_init+0x64>
20001874:	400587b7          	lui	a5,0x40058
20001878:	6711                	lui	a4,0x4
2000187a:	06f50063          	beq	a0,a5,200018da <pll_init+0x86>
2000187e:	400227b7          	lui	a5,0x40022
20001882:	c398                	sw	a4,0(a5)
20001884:	400206b7          	lui	a3,0x40020
20001888:	400237b7          	lui	a5,0x40023
2000188c:	c398                	sw	a4,0(a5)
2000188e:	06a1                	addi	a3,a3,8 # 40020008 <__StackTop+0x1ff9e008>
20001890:	429c                	lw	a5,0(a3)
20001892:	40f777b3          	andn	a5,a4,a5
20001896:	ffed                	bnez	a5,20001890 <pll_init+0x3c>
20001898:	670d                	lui	a4,0x3
2000189a:	c10c                	sw	a1,0(a0)
2000189c:	0711                	addi	a4,a4,4 # 3004 <HeapSize+0x2804>
2000189e:	c510                	sw	a2,8(a0)
200018a0:	972a                	add	a4,a4,a0
200018a2:	02100793          	li	a5,33
200018a6:	c31c                	sw	a5,0(a4)
200018a8:	411c                	lw	a5,0(a0)
200018aa:	fe07dfe3          	bgez	a5,200018a8 <pll_init+0x54>
200018ae:	01052623          	sw	a6,12(a0)
200018b2:	47a1                	li	a5,8
200018b4:	c31c                	sw	a5,0(a4)
200018b6:	8082                	ret
200018b8:	411c                	lw	a5,0(a0)
200018ba:	03f7f793          	andi	a5,a5,63
200018be:	fab79be3          	bne	a5,a1,20001874 <pll_init+0x20>
200018c2:	451c                	lw	a5,8(a0)
200018c4:	07d2                	slli	a5,a5,0x14
200018c6:	83d1                	srli	a5,a5,0x14
200018c8:	fac796e3          	bne	a5,a2,20001874 <pll_init+0x20>
200018cc:	455c                	lw	a5,12(a0)
200018ce:	00077737          	lui	a4,0x77
200018d2:	8ff9                	and	a5,a5,a4
200018d4:	fb0790e3          	bne	a5,a6,20001874 <pll_init+0x20>
200018d8:	8082                	ret
200018da:	6721                	lui	a4,0x8
200018dc:	b74d                	j	2000187e <pll_init+0x2a>

200018de <tick_start>:
200018de:	401087b7          	lui	a5,0x40108
200018e2:	20a52533          	sh1add	a0,a0,a0
200018e6:	20f54533          	sh2add	a0,a0,a5
200018ea:	c14c                	sw	a1,4(a0)
200018ec:	4785                	li	a5,1
200018ee:	c11c                	sw	a5,0(a0)
200018f0:	8082                	ret

200018f2 <rom_func_lookup>:
200018f2:	67a1                	lui	a5,0x8
200018f4:	dfa78793          	addi	a5,a5,-518 # 7dfa <HeapSize+0x75fa>
200018f8:	0007d783          	lhu	a5,0(a5)
200018fc:	4585                	li	a1,1
200018fe:	8782                	jr	a5

20001900 <runtime_init_bootrom_locking_enable>:
20001900:	400e17b7          	lui	a5,0x400e1
20001904:	82878793          	addi	a5,a5,-2008 # 400e0828 <__StackTop+0x2005e828>
20001908:	4398                	lw	a4,0(a5)
2000190a:	df7d                	beqz	a4,20001908 <runtime_init_bootrom_locking_enable+0x8>
2000190c:	0330000f          	fence	rw,rw
20001910:	8082                	ret

20001912 <runtime_init_boot_locks_reset>:
20001912:	400e17b7          	lui	a5,0x400e1
20001916:	873e                	mv	a4,a5
20001918:	82c70713          	addi	a4,a4,-2004 # 782c <HeapSize+0x702c>
2000191c:	80c78793          	addi	a5,a5,-2036 # 400e080c <__StackTop+0x2005e80c>
20001920:	0330000f          	fence	rw,rw
20001924:	0007a023          	sw	zero,0(a5)
20001928:	0791                	addi	a5,a5,4
2000192a:	fee79be3          	bne	a5,a4,20001920 <runtime_init_boot_locks_reset+0xe>
2000192e:	8082                	ret

20001930 <xosc_init>:
20001930:	6785                	lui	a5,0x1
20001932:	aa078793          	addi	a5,a5,-1376 # aa0 <HeapSize+0x2a0>
20001936:	40048737          	lui	a4,0x40048
2000193a:	c31c                	sw	a5,0(a4)
2000193c:	02f00793          	li	a5,47
20001940:	c75c                	sw	a5,12(a4)
20001942:	00fab6b7          	lui	a3,0xfab
20001946:	4004a7b7          	lui	a5,0x4004a
2000194a:	c394                	sw	a3,0(a5)
2000194c:	435c                	lw	a5,4(a4)
2000194e:	fe07dfe3          	bgez	a5,2000194c <xosc_init+0x1c>
20001952:	8082                	ret

20001954 <first_per_core_initializer>:
20001954:	8082                	ret

20001956 <hard_assertion_failure>:
20001956:	20007537          	lui	a0,0x20007
2000195a:	1141                	addi	sp,sp,-16
2000195c:	8ac50513          	addi	a0,a0,-1876 # 200068ac <strlen+0x11a>
20001960:	c606                	sw	ra,12(sp)
20001962:	ccdfe0ef          	jal	2000062e <panic>

20001966 <runtime_run_initializers>:
20001966:	1141                	addi	sp,sp,-16
20001968:	c422                	sw	s0,8(sp)
2000196a:	c226                	sw	s1,4(sp)
2000196c:	20007437          	lui	s0,0x20007
20001970:	200074b7          	lui	s1,0x20007
20001974:	c606                	sw	ra,12(sp)
20001976:	edc40793          	addi	a5,s0,-292 # 20006edc <__pre_init_runtime_init_early_resets>
2000197a:	f1048493          	addi	s1,s1,-240 # 20006f10 <default_alarm_pool_entries>
2000197e:	0097f963          	bgeu	a5,s1,20001990 <runtime_run_initializers+0x2a>
20001982:	edc40413          	addi	s0,s0,-292
20001986:	401c                	lw	a5,0(s0)
20001988:	0411                	addi	s0,s0,4
2000198a:	9782                	jalr	a5
2000198c:	fe946de3          	bltu	s0,s1,20001986 <runtime_run_initializers+0x20>
20001990:	40b2                	lw	ra,12(sp)
20001992:	4422                	lw	s0,8(sp)
20001994:	4492                	lw	s1,4(sp)
20001996:	0141                	addi	sp,sp,16
20001998:	8082                	ret

2000199a <runtime_init_early_resets>:
2000199a:	efef47b7          	lui	a5,0xefef4
2000199e:	b7f78793          	addi	a5,a5,-1153 # efef3b7f <__StackTop+0xcfe71b7f>
200019a2:	400226b7          	lui	a3,0x40022
200019a6:	03f40737          	lui	a4,0x3f40
200019aa:	c29c                	sw	a5,0(a3)
200019ac:	1759                	addi	a4,a4,-10 # 3f3fff6 <HeapSize+0x3f3f7f6>
200019ae:	400237b7          	lui	a5,0x40023
200019b2:	400206b7          	lui	a3,0x40020
200019b6:	c398                	sw	a4,0(a5)
200019b8:	06a1                	addi	a3,a3,8 # 40020008 <__StackTop+0x1ff9e008>
200019ba:	429c                	lw	a5,0(a3)
200019bc:	40f777b3          	andn	a5,a4,a5
200019c0:	ffed                	bnez	a5,200019ba <runtime_init_early_resets+0x20>
200019c2:	8082                	ret

200019c4 <runtime_init_usb_power_down>:
200019c4:	501107b7          	lui	a5,0x50110
200019c8:	47f8                	lw	a4,76(a5)
200019ca:	67a1                	lui	a5,0x8
200019cc:	00f70363          	beq	a4,a5,200019d2 <runtime_init_usb_power_down+0xe>
200019d0:	8082                	ret
200019d2:	501127b7          	lui	a5,0x50112
200019d6:	00040737          	lui	a4,0x40
200019da:	c7f8                	sw	a4,76(a5)
200019dc:	8082                	ret

200019de <runtime_init_post_clock_resets>:
200019de:	20000737          	lui	a4,0x20000
200019e2:	177d                	addi	a4,a4,-1 # 1fffffff <HeapSize+0x1ffff7ff>
200019e4:	400237b7          	lui	a5,0x40023
200019e8:	400206b7          	lui	a3,0x40020
200019ec:	c398                	sw	a4,0(a5)
200019ee:	06a1                	addi	a3,a3,8 # 40020008 <__StackTop+0x1ff9e008>
200019f0:	429c                	lw	a5,0(a3)
200019f2:	40f777b3          	andn	a5,a4,a5
200019f6:	ffed                	bnez	a5,200019f0 <runtime_init_post_clock_resets+0x12>
200019f8:	8082                	ret

200019fa <runtime_init_per_core_bootrom_reset>:
200019fa:	6515                	lui	a0,0x5
200019fc:	1141                	addi	sp,sp,-16
200019fe:	25350513          	addi	a0,a0,595 # 5253 <HeapSize+0x4a53>
20001a02:	c606                	sw	ra,12(sp)
20001a04:	35fd                	jal	200018f2 <rom_func_lookup>
20001a06:	40b2                	lw	ra,12(sp)
20001a08:	87aa                	mv	a5,a0
20001a0a:	4505                	li	a0,1
20001a0c:	0141                	addi	sp,sp,16
20001a0e:	8782                	jr	a5

20001a10 <runtime_init_spin_locks_reset>:
20001a10:	e07fe06f          	j	20000816 <spin_locks_reset>

20001a14 <runtime_init_clocks>:
20001a14:	1141                	addi	sp,sp,-16
20001a16:	c422                	sw	s0,8(sp)
20001a18:	c606                	sw	ra,12(sp)
20001a1a:	c226                	sw	s1,4(sp)
20001a1c:	c04a                	sw	s2,0(sp)
20001a1e:	40010437          	lui	s0,0x40010
20001a22:	08042223          	sw	zero,132(s0) # 40010084 <__StackTop+0x1ff8e084>
20001a26:	3729                	jal	20001930 <xosc_init>
20001a28:	400137b7          	lui	a5,0x40013
20001a2c:	4705                	li	a4,1
20001a2e:	dfd8                	sw	a4,60(a5)
20001a30:	407c                	lw	a5,68(s0)
20001a32:	fee79fe3          	bne	a5,a4,20001a30 <runtime_init_clocks+0x1c>
20001a36:	470d                	li	a4,3
20001a38:	400137b7          	lui	a5,0x40013
20001a3c:	db98                	sw	a4,48(a5)
20001a3e:	4405                	li	s0,1
20001a40:	40010737          	lui	a4,0x40010
20001a44:	5f1c                	lw	a5,56(a4)
20001a46:	fe879fe3          	bne	a5,s0,20001a44 <runtime_init_clocks+0x30>
20001a4a:	59683637          	lui	a2,0x59683
20001a4e:	85a2                	mv	a1,s0
20001a50:	f0060613          	addi	a2,a2,-256 # 59682f00 <__StackTop+0x39600f00>
20001a54:	4709                	li	a4,2
20001a56:	4695                	li	a3,5
20001a58:	40050537          	lui	a0,0x40050
20001a5c:	3be5                	jal	20001854 <pll_init>
20001a5e:	4715                	li	a4,5
20001a60:	47869637          	lui	a2,0x47869
20001a64:	86ba                	mv	a3,a4
20001a66:	85a2                	mv	a1,s0
20001a68:	c0060613          	addi	a2,a2,-1024 # 47868c00 <__StackTop+0x277e6c00>
20001a6c:	40058537          	lui	a0,0x40058
20001a70:	33d5                	jal	20001854 <pll_init>
20001a72:	00b726b7          	lui	a3,0xb72
20001a76:	b0068693          	addi	a3,a3,-1280 # b71b00 <HeapSize+0xb71300>
20001a7a:	4601                	li	a2,0
20001a7c:	4589                	li	a1,2
20001a7e:	4511                	li	a0,4
20001a80:	39c5                	jal	20001770 <clock_configure_undivided>
20001a82:	08f0d6b7          	lui	a3,0x8f0d
20001a86:	85a2                	mv	a1,s0
20001a88:	18068693          	addi	a3,a3,384 # 8f0d180 <HeapSize+0x8f0c980>
20001a8c:	4601                	li	a2,0
20001a8e:	4515                	li	a0,5
20001a90:	31c5                	jal	20001770 <clock_configure_undivided>
20001a92:	02dc76b7          	lui	a3,0x2dc7
20001a96:	c0068693          	addi	a3,a3,-1024 # 2dc6c00 <HeapSize+0x2dc6400>
20001a9a:	4601                	li	a2,0
20001a9c:	4581                	li	a1,0
20001a9e:	4521                	li	a0,8
20001aa0:	39c1                	jal	20001770 <clock_configure_undivided>
20001aa2:	02dc76b7          	lui	a3,0x2dc7
20001aa6:	c0068693          	addi	a3,a3,-1024 # 2dc6c00 <HeapSize+0x2dc6400>
20001aaa:	4601                	li	a2,0
20001aac:	4581                	li	a1,0
20001aae:	4525                	li	a0,9
20001ab0:	31c1                	jal	20001770 <clock_configure_undivided>
20001ab2:	08f0d6b7          	lui	a3,0x8f0d
20001ab6:	18068693          	addi	a3,a3,384 # 8f0d180 <HeapSize+0x8f0c980>
20001aba:	4601                	li	a2,0
20001abc:	4581                	li	a1,0
20001abe:	4519                	li	a0,6
20001ac0:	3945                	jal	20001770 <clock_configure_undivided>
20001ac2:	08f0d6b7          	lui	a3,0x8f0d
20001ac6:	18068693          	addi	a3,a3,384 # 8f0d180 <HeapSize+0x8f0c980>
20001aca:	4601                	li	a2,0
20001acc:	4581                	li	a1,0
20001ace:	451d                	li	a0,7
20001ad0:	3145                	jal	20001770 <clock_configure_undivided>
20001ad2:	4511                	li	a0,4
20001ad4:	3b85                	jal	20001844 <clock_get_hz>
20001ad6:	431be7b7          	lui	a5,0x431be
20001ada:	e8378793          	addi	a5,a5,-381 # 431bde83 <__StackTop+0x2313be83>
20001ade:	02f534b3          	mulhu	s1,a0,a5
20001ae2:	4401                	li	s0,0
20001ae4:	4919                	li	s2,6
20001ae6:	80c9                	srli	s1,s1,0x12
20001ae8:	8522                	mv	a0,s0
20001aea:	85a6                	mv	a1,s1
20001aec:	0405                	addi	s0,s0,1
20001aee:	3bc5                	jal	200018de <tick_start>
20001af0:	ff241ce3          	bne	s0,s2,20001ae8 <runtime_init_clocks+0xd4>
20001af4:	40b2                	lw	ra,12(sp)
20001af6:	4422                	lw	s0,8(sp)
20001af8:	4492                	lw	s1,4(sp)
20001afa:	4902                	lw	s2,0(sp)
20001afc:	0141                	addi	sp,sp,16
20001afe:	8082                	ret

20001b00 <_out_null>:
20001b00:	8082                	ret

20001b02 <_out_rev>:
20001b02:	7179                	addi	sp,sp,-48
20001b04:	d422                	sw	s0,40(sp)
20001b06:	ce4e                	sw	s3,28(sp)
20001b08:	cc52                	sw	s4,24(sp)
20001b0a:	ca56                	sw	s5,20(sp)
20001b0c:	c85a                	sw	s6,16(sp)
20001b0e:	c65e                	sw	s7,12(sp)
20001b10:	c462                	sw	s8,8(sp)
20001b12:	c266                	sw	s9,4(sp)
20001b14:	d606                	sw	ra,44(sp)
20001b16:	8cc6                	mv	s9,a7
20001b18:	d226                	sw	s1,36(sp)
20001b1a:	d04a                	sw	s2,32(sp)
20001b1c:	0038f893          	andi	a7,a7,3
20001b20:	89aa                	mv	s3,a0
20001b22:	8a2e                	mv	s4,a1
20001b24:	8b32                	mv	s6,a2
20001b26:	8ab6                	mv	s5,a3
20001b28:	8bba                	mv	s7,a4
20001b2a:	843e                	mv	s0,a5
20001b2c:	8c42                	mv	s8,a6
20001b2e:	06089f63          	bnez	a7,20001bac <_out_rev+0xaa>
20001b32:	40f80933          	sub	s2,a6,a5
20001b36:	9932                	add	s2,s2,a2
20001b38:	84b2                	mv	s1,a2
20001b3a:	0707fd63          	bgeu	a5,a6,20001bb4 <_out_rev+0xb2>
20001b3e:	8626                	mv	a2,s1
20001b40:	86d6                	mv	a3,s5
20001b42:	0485                	addi	s1,s1,1
20001b44:	85d2                	mv	a1,s4
20001b46:	02000513          	li	a0,32
20001b4a:	9982                	jalr	s3
20001b4c:	ff2499e3          	bne	s1,s2,20001b3e <_out_rev+0x3c>
20001b50:	c021                	beqz	s0,20001b90 <_out_rev+0x8e>
20001b52:	9922                	add	s2,s2,s0
20001b54:	40890633          	sub	a2,s2,s0
20001b58:	147d                	addi	s0,s0,-1
20001b5a:	008b87b3          	add	a5,s7,s0
20001b5e:	0007c503          	lbu	a0,0(a5)
20001b62:	86d6                	mv	a3,s5
20001b64:	85d2                	mv	a1,s4
20001b66:	84ca                	mv	s1,s2
20001b68:	9982                	jalr	s3
20001b6a:	f46d                	bnez	s0,20001b54 <_out_rev+0x52>
20001b6c:	002cfc93          	andi	s9,s9,2
20001b70:	020c8063          	beqz	s9,20001b90 <_out_rev+0x8e>
20001b74:	41648b33          	sub	s6,s1,s6
20001b78:	018b7c63          	bgeu	s6,s8,20001b90 <_out_rev+0x8e>
20001b7c:	8626                	mv	a2,s1
20001b7e:	86d6                	mv	a3,s5
20001b80:	85d2                	mv	a1,s4
20001b82:	02000513          	li	a0,32
20001b86:	0b05                	addi	s6,s6,1
20001b88:	0485                	addi	s1,s1,1
20001b8a:	9982                	jalr	s3
20001b8c:	ff8b68e3          	bltu	s6,s8,20001b7c <_out_rev+0x7a>
20001b90:	50b2                	lw	ra,44(sp)
20001b92:	5422                	lw	s0,40(sp)
20001b94:	5902                	lw	s2,32(sp)
20001b96:	49f2                	lw	s3,28(sp)
20001b98:	4a62                	lw	s4,24(sp)
20001b9a:	4ad2                	lw	s5,20(sp)
20001b9c:	4b42                	lw	s6,16(sp)
20001b9e:	4bb2                	lw	s7,12(sp)
20001ba0:	4c22                	lw	s8,8(sp)
20001ba2:	4c92                	lw	s9,4(sp)
20001ba4:	8526                	mv	a0,s1
20001ba6:	5492                	lw	s1,36(sp)
20001ba8:	6145                	addi	sp,sp,48
20001baa:	8082                	ret
20001bac:	8932                	mv	s2,a2
20001bae:	84b2                	mv	s1,a2
20001bb0:	f3cd                	bnez	a5,20001b52 <_out_rev+0x50>
20001bb2:	bf6d                	j	20001b6c <_out_rev+0x6a>
20001bb4:	8932                	mv	s2,a2
20001bb6:	ffd1                	bnez	a5,20001b52 <_out_rev+0x50>
20001bb8:	bfe1                	j	20001b90 <_out_rev+0x8e>

20001bba <_ntoa_format>:
20001bba:	42a2                	lw	t0,8(sp)
20001bbc:	8fc2                	mv	t6,a6
20001bbe:	4e02                	lw	t3,0(sp)
20001bc0:	0022fe93          	andi	t4,t0,2
20001bc4:	4812                	lw	a6,4(sp)
20001bc6:	833e                	mv	t1,a5
20001bc8:	040e9663          	bnez	t4,20001c14 <_ntoa_format+0x5a>
20001bcc:	0c081863          	bnez	a6,20001c9c <_ntoa_format+0xe2>
20001bd0:	05c7f263          	bgeu	a5,t3,20001c14 <_ntoa_format+0x5a>
20001bd4:	0012f393          	andi	t2,t0,1
20001bd8:	02000e93          	li	t4,32
20001bdc:	03000f13          	li	t5,48
20001be0:	01d30963          	beq	t1,t4,20001bf2 <_ntoa_format+0x38>
20001be4:	0305                	addi	t1,t1,1
20001be6:	006707b3          	add	a5,a4,t1
20001bea:	ffe78fa3          	sb	t5,-1(a5)
20001bee:	ffc369e3          	bltu	t1,t3,20001be0 <_ntoa_format+0x26>
20001bf2:	06038263          	beqz	t2,20001c56 <_ntoa_format+0x9c>
20001bf6:	02000e93          	li	t4,32
20001bfa:	03000f13          	li	t5,48
20001bfe:	01037b63          	bgeu	t1,a6,20001c14 <_ntoa_format+0x5a>
20001c02:	0dd30463          	beq	t1,t4,20001cca <_ntoa_format+0x110>
20001c06:	0305                	addi	t1,t1,1
20001c08:	006707b3          	add	a5,a4,t1
20001c0c:	ffe78fa3          	sb	t5,-1(a5)
20001c10:	ff0319e3          	bne	t1,a6,20001c02 <_ntoa_format+0x48>
20001c14:	0102f793          	andi	a5,t0,16
20001c18:	cbb5                	beqz	a5,20001c8c <_ntoa_format+0xd2>
20001c1a:	4002f793          	andi	a5,t0,1024
20001c1e:	e7b1                	bnez	a5,20001c6a <_ntoa_format+0xb0>
20001c20:	04031163          	bnez	t1,20001c62 <_ntoa_format+0xa8>
20001c24:	47c1                	li	a5,16
20001c26:	16f88363          	beq	a7,a5,20001d8c <_ntoa_format+0x1d2>
20001c2a:	4789                	li	a5,2
20001c2c:	16f88f63          	beq	a7,a5,20001daa <_ntoa_format+0x1f0>
20001c30:	03000793          	li	a5,48
20001c34:	00f70023          	sb	a5,0(a4) # 40010000 <__StackTop+0x1ff8e000>
20001c38:	4305                	li	t1,1
20001c3a:	060f9b63          	bnez	t6,20001cb0 <_ntoa_format+0xf6>
20001c3e:	0042f793          	andi	a5,t0,4
20001c42:	c3f5                	beqz	a5,20001d26 <_ntoa_format+0x16c>
20001c44:	006708b3          	add	a7,a4,t1
20001c48:	02b00e13          	li	t3,43
20001c4c:	00130793          	addi	a5,t1,1
20001c50:	01c88023          	sb	t3,0(a7)
20001c54:	a091                	j	20001c98 <_ntoa_format+0xde>
20001c56:	0102f793          	andi	a5,t0,16
20001c5a:	cb8d                	beqz	a5,20001c8c <_ntoa_format+0xd2>
20001c5c:	4002f793          	andi	a5,t0,1024
20001c60:	e789                	bnez	a5,20001c6a <_ntoa_format+0xb0>
20001c62:	0a6e0363          	beq	t3,t1,20001d08 <_ntoa_format+0x14e>
20001c66:	0a680163          	beq	a6,t1,20001d08 <_ntoa_format+0x14e>
20001c6a:	47c1                	li	a5,16
20001c6c:	06f88863          	beq	a7,a5,20001cdc <_ntoa_format+0x122>
20001c70:	4789                	li	a5,2
20001c72:	08f88463          	beq	a7,a5,20001cfa <_ntoa_format+0x140>
20001c76:	02000793          	li	a5,32
20001c7a:	00f30d63          	beq	t1,a5,20001c94 <_ntoa_format+0xda>
20001c7e:	879a                	mv	a5,t1
20001c80:	0305                	addi	t1,t1,1
20001c82:	97ba                	add	a5,a5,a4
20001c84:	03000893          	li	a7,48
20001c88:	01178023          	sb	a7,0(a5)
20001c8c:	02000793          	li	a5,32
20001c90:	faf315e3          	bne	t1,a5,20001c3a <_ntoa_format+0x80>
20001c94:	02000793          	li	a5,32
20001c98:	8896                	mv	a7,t0
20001c9a:	b5a5                	j	20001b02 <_out_rev>
20001c9c:	0012f393          	andi	t2,t0,1
20001ca0:	02038263          	beqz	t2,20001cc4 <_ntoa_format+0x10a>
20001ca4:	080f8d63          	beqz	t6,20001d3e <_ntoa_format+0x184>
20001ca8:	187d                	addi	a6,a6,-1
20001caa:	f3c7e7e3          	bltu	a5,t3,20001bd8 <_ntoa_format+0x1e>
20001cae:	b7a1                	j	20001bf6 <_ntoa_format+0x3c>
20001cb0:	006708b3          	add	a7,a4,t1
20001cb4:	02d00e13          	li	t3,45
20001cb8:	01c88023          	sb	t3,0(a7)
20001cbc:	00130793          	addi	a5,t1,1
20001cc0:	8896                	mv	a7,t0
20001cc2:	b581                	j	20001b02 <_out_rev>
20001cc4:	f1c7eae3          	bltu	a5,t3,20001bd8 <_ntoa_format+0x1e>
20001cc8:	b7b1                	j	20001c14 <_ntoa_format+0x5a>
20001cca:	0102f793          	andi	a5,t0,16
20001cce:	d3f9                	beqz	a5,20001c94 <_ntoa_format+0xda>
20001cd0:	4002f793          	andi	a5,t0,1024
20001cd4:	d7d9                	beqz	a5,20001c62 <_ntoa_format+0xa8>
20001cd6:	47c1                	li	a5,16
20001cd8:	faf89ee3          	bne	a7,a5,20001c94 <_ntoa_format+0xda>
20001cdc:	0202f793          	andi	a5,t0,32
20001ce0:	cba5                	beqz	a5,20001d50 <_ntoa_format+0x196>
20001ce2:	02000793          	li	a5,32
20001ce6:	faf307e3          	beq	t1,a5,20001c94 <_ntoa_format+0xda>
20001cea:	006707b3          	add	a5,a4,t1
20001cee:	05800893          	li	a7,88
20001cf2:	01178023          	sb	a7,0(a5)
20001cf6:	0305                	addi	t1,t1,1
20001cf8:	bfbd                	j	20001c76 <_ntoa_format+0xbc>
20001cfa:	02000793          	li	a5,32
20001cfe:	f8f30be3          	beq	t1,a5,20001c94 <_ntoa_format+0xda>
20001d02:	879a                	mv	a5,t1
20001d04:	0305                	addi	t1,t1,1
20001d06:	a811                	j	20001d1a <_ntoa_format+0x160>
20001d08:	fff30793          	addi	a5,t1,-1
20001d0c:	cfb1                	beqz	a5,20001d68 <_ntoa_format+0x1ae>
20001d0e:	4e41                	li	t3,16
20001d10:	0bc88363          	beq	a7,t3,20001db6 <_ntoa_format+0x1fc>
20001d14:	4e09                	li	t3,2
20001d16:	f7c896e3          	bne	a7,t3,20001c82 <_ntoa_format+0xc8>
20001d1a:	97ba                	add	a5,a5,a4
20001d1c:	06200893          	li	a7,98
20001d20:	01178023          	sb	a7,0(a5)
20001d24:	bf89                	j	20001c76 <_ntoa_format+0xbc>
20001d26:	0082f893          	andi	a7,t0,8
20001d2a:	879a                	mv	a5,t1
20001d2c:	f60886e3          	beqz	a7,20001c98 <_ntoa_format+0xde>
20001d30:	933a                	add	t1,t1,a4
20001d32:	02000893          	li	a7,32
20001d36:	0785                	addi	a5,a5,1
20001d38:	01130023          	sb	a7,0(t1)
20001d3c:	bfb1                	j	20001c98 <_ntoa_format+0xde>
20001d3e:	00c2f793          	andi	a5,t0,12
20001d42:	00f037b3          	snez	a5,a5
20001d46:	40f80833          	sub	a6,a6,a5
20001d4a:	e9c367e3          	bltu	t1,t3,20001bd8 <_ntoa_format+0x1e>
20001d4e:	b565                	j	20001bf6 <_ntoa_format+0x3c>
20001d50:	02000793          	li	a5,32
20001d54:	f4f300e3          	beq	t1,a5,20001c94 <_ntoa_format+0xda>
20001d58:	006707b3          	add	a5,a4,t1
20001d5c:	07800893          	li	a7,120
20001d60:	01178023          	sb	a7,0(a5)
20001d64:	0305                	addi	t1,t1,1
20001d66:	bf01                	j	20001c76 <_ntoa_format+0xbc>
20001d68:	47c1                	li	a5,16
20001d6a:	ecf890e3          	bne	a7,a5,20001c2a <_ntoa_format+0x70>
20001d6e:	0202f793          	andi	a5,t0,32
20001d72:	cf9d                	beqz	a5,20001db0 <_ntoa_format+0x1f6>
20001d74:	05800893          	li	a7,88
20001d78:	03000793          	li	a5,48
20001d7c:	01170023          	sb	a7,0(a4)
20001d80:	00f700a3          	sb	a5,1(a4)
20001d84:	4309                	li	t1,2
20001d86:	ea0f8ce3          	beqz	t6,20001c3e <_ntoa_format+0x84>
20001d8a:	b71d                	j	20001cb0 <_ntoa_format+0xf6>
20001d8c:	0202f793          	andi	a5,t0,32
20001d90:	c385                	beqz	a5,20001db0 <_ntoa_format+0x1f6>
20001d92:	05800793          	li	a5,88
20001d96:	03000893          	li	a7,48
20001d9a:	00f70023          	sb	a5,0(a4)
20001d9e:	011700a3          	sb	a7,1(a4)
20001da2:	4309                	li	t1,2
20001da4:	e80f8de3          	beqz	t6,20001c3e <_ntoa_format+0x84>
20001da8:	b721                	j	20001cb0 <_ntoa_format+0xf6>
20001daa:	06200793          	li	a5,98
20001dae:	b7e5                	j	20001d96 <_ntoa_format+0x1dc>
20001db0:	07800793          	li	a5,120
20001db4:	b7cd                	j	20001d96 <_ntoa_format+0x1dc>
20001db6:	ffe30893          	addi	a7,t1,-2
20001dba:	0202fe13          	andi	t3,t0,32
20001dbe:	98ba                	add	a7,a7,a4
20001dc0:	000e0763          	beqz	t3,20001dce <_ntoa_format+0x214>
20001dc4:	05800e13          	li	t3,88
20001dc8:	01c88023          	sb	t3,0(a7)
20001dcc:	bd5d                	j	20001c82 <_ntoa_format+0xc8>
20001dce:	07800e13          	li	t3,120
20001dd2:	01c88023          	sb	t3,0(a7)
20001dd6:	b575                	j	20001c82 <_ntoa_format+0xc8>

20001dd8 <_out_char>:
20001dd8:	e111                	bnez	a0,20001ddc <_out_char+0x4>
20001dda:	8082                	ret
20001ddc:	0d10106f          	j	200036ac <__wrap_putchar>

20001de0 <_out_fct>:
20001de0:	c501                	beqz	a0,20001de8 <_out_fct+0x8>
20001de2:	419c                	lw	a5,0(a1)
20001de4:	41cc                	lw	a1,4(a1)
20001de6:	8782                	jr	a5
20001de8:	8082                	ret

20001dea <_ftoa>:
20001dea:	7131                	addi	sp,sp,-192
20001dec:	d94a                	sw	s2,176(sp)
20001dee:	d74e                	sw	s3,172(sp)
20001df0:	d552                	sw	s4,168(sp)
20001df2:	d15a                	sw	s6,160(sp)
20001df4:	892a                	mv	s2,a0
20001df6:	89ae                	mv	s3,a1
20001df8:	8b32                	mv	s6,a2
20001dfa:	8a36                	mv	s4,a3
20001dfc:	853a                	mv	a0,a4
20001dfe:	85be                	mv	a1,a5
20001e00:	863a                	mv	a2,a4
20001e02:	86be                	mv	a3,a5
20001e04:	dd22                	sw	s0,184(sp)
20001e06:	db26                	sw	s1,180(sp)
20001e08:	d356                	sw	s5,164(sp)
20001e0a:	cf5e                	sw	s7,156(sp)
20001e0c:	df06                	sw	ra,188(sp)
20001e0e:	cd62                	sw	s8,152(sp)
20001e10:	cb66                	sw	s9,148(sp)
20001e12:	4b8e                	lw	s7,192(sp)
20001e14:	84ba                	mv	s1,a4
20001e16:	843e                	mv	s0,a5
20001e18:	c042                	sw	a6,0(sp)
20001e1a:	8ac6                	mv	s5,a7
20001e1c:	73c040ef          	jal	20006558 <__unorddf2>
20001e20:	46051b63          	bnez	a0,20002296 <_ftoa+0x4ac>
20001e24:	200077b7          	lui	a5,0x20007
20001e28:	d987a603          	lw	a2,-616(a5) # 20006d98 <blink_program+0xc>
20001e2c:	d9c7a683          	lw	a3,-612(a5)
20001e30:	8526                	mv	a0,s1
20001e32:	85a2                	mv	a1,s0
20001e34:	c96a                	sw	s10,144(sp)
20001e36:	c76e                	sw	s11,140(sp)
20001e38:	055030ef          	jal	2000568c <__ledf2>
20001e3c:	20054963          	bltz	a0,2000204e <_ftoa+0x264>
20001e40:	200077b7          	lui	a5,0x20007
20001e44:	da07a603          	lw	a2,-608(a5) # 20006da0 <blink_program+0x14>
20001e48:	da47a683          	lw	a3,-604(a5)
20001e4c:	8526                	mv	a0,s1
20001e4e:	85a2                	mv	a1,s0
20001e50:	77e030ef          	jal	200055ce <__gedf2>
20001e54:	18a04d63          	bgtz	a0,20001fee <_ftoa+0x204>
20001e58:	200077b7          	lui	a5,0x20007
20001e5c:	c426                	sw	s1,8(sp)
20001e5e:	c622                	sw	s0,12(sp)
20001e60:	4522                	lw	a0,8(sp)
20001e62:	45b2                	lw	a1,12(sp)
20001e64:	da87a603          	lw	a2,-600(a5) # 20006da8 <blink_program+0x1c>
20001e68:	dac7a683          	lw	a3,-596(a5)
20001e6c:	762030ef          	jal	200055ce <__gedf2>
20001e70:	14a04563          	bgtz	a0,20001fba <_ftoa+0x1d0>
20001e74:	200077b7          	lui	a5,0x20007
20001e78:	c826                	sw	s1,16(sp)
20001e7a:	ca22                	sw	s0,20(sp)
20001e7c:	4542                	lw	a0,16(sp)
20001e7e:	45d2                	lw	a1,20(sp)
20001e80:	db07a603          	lw	a2,-592(a5) # 20006db0 <blink_program+0x24>
20001e84:	db47a683          	lw	a3,-588(a5)
20001e88:	005030ef          	jal	2000568c <__ledf2>
20001e8c:	12054763          	bltz	a0,20001fba <_ftoa+0x1d0>
20001e90:	cc26                	sw	s1,24(sp)
20001e92:	ce22                	sw	s0,28(sp)
20001e94:	4562                	lw	a0,24(sp)
20001e96:	45f2                	lw	a1,28(sp)
20001e98:	4601                	li	a2,0
20001e9a:	4681                	li	a3,0
20001e9c:	7f0030ef          	jal	2000568c <__ledf2>
20001ea0:	18054a63          	bltz	a0,20002034 <_ftoa+0x24a>
20001ea4:	dc02                	sw	zero,56(sp)
20001ea6:	400bf793          	andi	a5,s7,1024
20001eaa:	e399                	bnez	a5,20001eb0 <_ftoa+0xc6>
20001eac:	4799                	li	a5,6
20001eae:	c03e                	sw	a5,0(sp)
20001eb0:	4682                	lw	a3,0(sp)
20001eb2:	06010d13          	addi	s10,sp,96
20001eb6:	87ea                	mv	a5,s10
20001eb8:	fe068893          	addi	a7,a3,-32
20001ebc:	4625                	li	a2,9
20001ebe:	03000593          	li	a1,48
20001ec2:	22d67263          	bgeu	a2,a3,200020e6 <_ftoa+0x2fc>
20001ec6:	00b78023          	sb	a1,0(a5)
20001eca:	16fd                	addi	a3,a3,-1
20001ecc:	0785                	addi	a5,a5,1
20001ece:	ff169ae3          	bne	a3,a7,20001ec2 <_ftoa+0xd8>
20001ed2:	02000c93          	li	s9,32
20001ed6:	d026                	sw	s1,32(sp)
20001ed8:	d222                	sw	s0,36(sp)
20001eda:	5502                	lw	a0,32(sp)
20001edc:	5592                	lw	a1,36(sp)
20001ede:	c046                	sw	a7,0(sp)
20001ee0:	6b4040ef          	jal	20006594 <__fixdfsi>
20001ee4:	4882                	lw	a7,0(sp)
20001ee6:	200076b7          	lui	a3,0x20007
20001eea:	bd868693          	addi	a3,a3,-1064 # 20006bd8 <pow10.0>
20001eee:	20d8e6b3          	sh3add	a3,a7,a3
20001ef2:	0046a803          	lw	a6,4(a3)
20001ef6:	429c                	lw	a5,0(a3)
20001ef8:	cc46                	sw	a7,24(sp)
20001efa:	c242                	sw	a6,4(sp)
20001efc:	c03e                	sw	a5,0(sp)
20001efe:	8daa                	mv	s11,a0
20001f00:	752040ef          	jal	20006652 <__floatsidf>
20001f04:	d426                	sw	s1,40(sp)
20001f06:	d622                	sw	s0,44(sp)
20001f08:	862a                	mv	a2,a0
20001f0a:	86ae                	mv	a3,a1
20001f0c:	5522                	lw	a0,40(sp)
20001f0e:	55b2                	lw	a1,44(sp)
20001f10:	593030ef          	jal	20005ca2 <__subdf3>
20001f14:	4602                	lw	a2,0(sp)
20001f16:	4692                	lw	a3,4(sp)
20001f18:	035030ef          	jal	2000574c <__muldf3>
20001f1c:	8c2e                	mv	s8,a1
20001f1e:	c82a                	sw	a0,16(sp)
20001f20:	6da040ef          	jal	200065fa <__fixunsdfsi>
20001f24:	c42a                	sw	a0,8(sp)
20001f26:	7a2040ef          	jal	200066c8 <__floatunsidf>
20001f2a:	47c2                	lw	a5,16(sp)
20001f2c:	da62                	sw	s8,52(sp)
20001f2e:	862a                	mv	a2,a0
20001f30:	d83e                	sw	a5,48(sp)
20001f32:	86ae                	mv	a3,a1
20001f34:	5542                	lw	a0,48(sp)
20001f36:	55d2                	lw	a1,52(sp)
20001f38:	20007c37          	lui	s8,0x20007
20001f3c:	567030ef          	jal	20005ca2 <__subdf3>
20001f40:	db8c2603          	lw	a2,-584(s8) # 20006db8 <blink_program+0x2c>
20001f44:	dbcc2683          	lw	a3,-580(s8)
20001f48:	c82a                	sw	a0,16(sp)
20001f4a:	d02e                	sw	a1,32(sp)
20001f4c:	682030ef          	jal	200055ce <__gedf2>
20001f50:	4322                	lw	t1,8(sp)
20001f52:	48e2                	lw	a7,24(sp)
20001f54:	28a05763          	blez	a0,200021e2 <_ftoa+0x3f8>
20001f58:	0305                	addi	t1,t1,1
20001f5a:	851a                	mv	a0,t1
20001f5c:	c846                	sw	a7,16(sp)
20001f5e:	c41a                	sw	t1,8(sp)
20001f60:	768040ef          	jal	200066c8 <__floatunsidf>
20001f64:	862a                	mv	a2,a0
20001f66:	86ae                	mv	a3,a1
20001f68:	4502                	lw	a0,0(sp)
20001f6a:	4592                	lw	a1,4(sp)
20001f6c:	720030ef          	jal	2000568c <__ledf2>
20001f70:	4322                	lw	t1,8(sp)
20001f72:	48c2                	lw	a7,16(sp)
20001f74:	00a04463          	bgtz	a0,20001f7c <_ftoa+0x192>
20001f78:	0d85                	addi	s11,s11,1
20001f7a:	4301                	li	t1,0
20001f7c:	16088a63          	beqz	a7,200020f0 <_ftoa+0x306>
20001f80:	ccccd537          	lui	a0,0xccccd
20001f84:	ccd50513          	addi	a0,a0,-819 # cccccccd <__StackTop+0xacc4accd>
20001f88:	02000e13          	li	t3,32
20001f8c:	4ea5                	li	t4,9
20001f8e:	2dcc8263          	beq	s9,t3,20002252 <_ftoa+0x468>
20001f92:	02a33733          	mulhu	a4,t1,a0
20001f96:	0c85                	addi	s9,s9,1
20001f98:	019d06b3          	add	a3,s10,s9
20001f9c:	18fd                	addi	a7,a7,-1
20001f9e:	830d                	srli	a4,a4,0x3
20001fa0:	20e747b3          	sh2add	a5,a4,a4
20001fa4:	0786                	slli	a5,a5,0x1
20001fa6:	40f307b3          	sub	a5,t1,a5
20001faa:	03078793          	addi	a5,a5,48
20001fae:	fef68fa3          	sb	a5,-1(a3)
20001fb2:	286ef063          	bgeu	t4,t1,20002232 <_ftoa+0x448>
20001fb6:	833a                	mv	t1,a4
20001fb8:	bfd9                	j	20001f8e <_ftoa+0x1a4>
20001fba:	dc26                	sw	s1,56(sp)
20001fbc:	de22                	sw	s0,60(sp)
20001fbe:	546a                	lw	s0,184(sp)
20001fc0:	c1de                	sw	s7,192(sp)
20001fc2:	5762                	lw	a4,56(sp)
20001fc4:	57f2                	lw	a5,60(sp)
20001fc6:	4802                	lw	a6,0(sp)
20001fc8:	4d4a                	lw	s10,144(sp)
20001fca:	4dba                	lw	s11,140(sp)
20001fcc:	50fa                	lw	ra,188(sp)
20001fce:	54da                	lw	s1,180(sp)
20001fd0:	4bfa                	lw	s7,156(sp)
20001fd2:	4c6a                	lw	s8,152(sp)
20001fd4:	4cda                	lw	s9,148(sp)
20001fd6:	88d6                	mv	a7,s5
20001fd8:	86d2                	mv	a3,s4
20001fda:	5a9a                	lw	s5,164(sp)
20001fdc:	5a2a                	lw	s4,168(sp)
20001fde:	865a                	mv	a2,s6
20001fe0:	85ce                	mv	a1,s3
20001fe2:	5b0a                	lw	s6,160(sp)
20001fe4:	59ba                	lw	s3,172(sp)
20001fe6:	854a                	mv	a0,s2
20001fe8:	594a                	lw	s2,176(sp)
20001fea:	6129                	addi	sp,sp,192
20001fec:	ae35                	j	20002328 <_etoa>
20001fee:	004bf793          	andi	a5,s7,4
20001ff2:	eb9d                	bnez	a5,20002028 <_ftoa+0x23e>
20001ff4:	20007737          	lui	a4,0x20007
20001ff8:	94470713          	addi	a4,a4,-1724 # 20006944 <strlen+0x1b2>
20001ffc:	478d                	li	a5,3
20001ffe:	546a                	lw	s0,184(sp)
20002000:	4d4a                	lw	s10,144(sp)
20002002:	4dba                	lw	s11,140(sp)
20002004:	50fa                	lw	ra,188(sp)
20002006:	54da                	lw	s1,180(sp)
20002008:	4c6a                	lw	s8,152(sp)
2000200a:	4cda                	lw	s9,148(sp)
2000200c:	88de                	mv	a7,s7
2000200e:	8856                	mv	a6,s5
20002010:	4bfa                	lw	s7,156(sp)
20002012:	5a9a                	lw	s5,164(sp)
20002014:	86d2                	mv	a3,s4
20002016:	865a                	mv	a2,s6
20002018:	5a2a                	lw	s4,168(sp)
2000201a:	5b0a                	lw	s6,160(sp)
2000201c:	85ce                	mv	a1,s3
2000201e:	854a                	mv	a0,s2
20002020:	59ba                	lw	s3,172(sp)
20002022:	594a                	lw	s2,176(sp)
20002024:	6129                	addi	sp,sp,192
20002026:	bcf1                	j	20001b02 <_out_rev>
20002028:	20007737          	lui	a4,0x20007
2000202c:	93c70713          	addi	a4,a4,-1732 # 2000693c <strlen+0x1aa>
20002030:	4791                	li	a5,4
20002032:	b7f1                	j	20001ffe <_ftoa+0x214>
20002034:	c8a6                	sw	s1,80(sp)
20002036:	caa2                	sw	s0,84(sp)
20002038:	4646                	lw	a2,80(sp)
2000203a:	46d6                	lw	a3,84(sp)
2000203c:	4501                	li	a0,0
2000203e:	4581                	li	a1,0
20002040:	463030ef          	jal	20005ca2 <__subdf3>
20002044:	4785                	li	a5,1
20002046:	84aa                	mv	s1,a0
20002048:	842e                	mv	s0,a1
2000204a:	dc3e                	sw	a5,56(sp)
2000204c:	bda9                	j	20001ea6 <_ftoa+0xbc>
2000204e:	003bf793          	andi	a5,s7,3
20002052:	84da                	mv	s1,s6
20002054:	e395                	bnez	a5,20002078 <_ftoa+0x28e>
20002056:	4791                	li	a5,4
20002058:	0357f063          	bgeu	a5,s5,20002078 <_ftoa+0x28e>
2000205c:	ffcb0413          	addi	s0,s6,-4
20002060:	015404b3          	add	s1,s0,s5
20002064:	845a                	mv	s0,s6
20002066:	8622                	mv	a2,s0
20002068:	86d2                	mv	a3,s4
2000206a:	0405                	addi	s0,s0,1
2000206c:	85ce                	mv	a1,s3
2000206e:	02000513          	li	a0,32
20002072:	9902                	jalr	s2
20002074:	fe9419e3          	bne	s0,s1,20002066 <_ftoa+0x27c>
20002078:	20007437          	lui	s0,0x20007
2000207c:	94c40c13          	addi	s8,s0,-1716 # 2000694c <strlen+0x1ba>
20002080:	94c40413          	addi	s0,s0,-1716
20002084:	1c71                	addi	s8,s8,-4
20002086:	00940cb3          	add	s9,s0,s1
2000208a:	00344503          	lbu	a0,3(s0)
2000208e:	408c8633          	sub	a2,s9,s0
20002092:	86d2                	mv	a3,s4
20002094:	85ce                	mv	a1,s3
20002096:	147d                	addi	s0,s0,-1
20002098:	9902                	jalr	s2
2000209a:	ff8418e3          	bne	s0,s8,2000208a <_ftoa+0x2a0>
2000209e:	002bfb93          	andi	s7,s7,2
200020a2:	0491                	addi	s1,s1,4
200020a4:	020b8163          	beqz	s7,200020c6 <_ftoa+0x2dc>
200020a8:	416487b3          	sub	a5,s1,s6
200020ac:	0157fd63          	bgeu	a5,s5,200020c6 <_ftoa+0x2dc>
200020b0:	8626                	mv	a2,s1
200020b2:	86d2                	mv	a3,s4
200020b4:	85ce                	mv	a1,s3
200020b6:	02000513          	li	a0,32
200020ba:	0485                	addi	s1,s1,1
200020bc:	9902                	jalr	s2
200020be:	416487b3          	sub	a5,s1,s6
200020c2:	ff57e7e3          	bltu	a5,s5,200020b0 <_ftoa+0x2c6>
200020c6:	4d4a                	lw	s10,144(sp)
200020c8:	4dba                	lw	s11,140(sp)
200020ca:	50fa                	lw	ra,188(sp)
200020cc:	546a                	lw	s0,184(sp)
200020ce:	594a                	lw	s2,176(sp)
200020d0:	59ba                	lw	s3,172(sp)
200020d2:	5a2a                	lw	s4,168(sp)
200020d4:	5a9a                	lw	s5,164(sp)
200020d6:	5b0a                	lw	s6,160(sp)
200020d8:	4bfa                	lw	s7,156(sp)
200020da:	4c6a                	lw	s8,152(sp)
200020dc:	4cda                	lw	s9,148(sp)
200020de:	8526                	mv	a0,s1
200020e0:	54da                	lw	s1,180(sp)
200020e2:	6129                	addi	sp,sp,192
200020e4:	8082                	ret
200020e6:	4782                	lw	a5,0(sp)
200020e8:	88b6                	mv	a7,a3
200020ea:	40d78cb3          	sub	s9,a5,a3
200020ee:	b3e5                	j	20001ed6 <_ftoa+0xec>
200020f0:	856e                	mv	a0,s11
200020f2:	560040ef          	jal	20006652 <__floatsidf>
200020f6:	c4a6                	sw	s1,72(sp)
200020f8:	c6a2                	sw	s0,76(sp)
200020fa:	862a                	mv	a2,a0
200020fc:	86ae                	mv	a3,a1
200020fe:	4526                	lw	a0,72(sp)
20002100:	45b6                	lw	a1,76(sp)
20002102:	3a1030ef          	jal	20005ca2 <__subdf3>
20002106:	db8c2403          	lw	s0,-584(s8)
2000210a:	dbcc2483          	lw	s1,-580(s8)
2000210e:	c02a                	sw	a0,0(sp)
20002110:	8622                	mv	a2,s0
20002112:	86a6                	mv	a3,s1
20002114:	8c2e                	mv	s8,a1
20002116:	576030ef          	jal	2000568c <__ledf2>
2000211a:	00054d63          	bltz	a0,20002134 <_ftoa+0x34a>
2000211e:	4782                	lw	a5,0(sp)
20002120:	cee2                	sw	s8,92(sp)
20002122:	45f6                	lw	a1,92(sp)
20002124:	ccbe                	sw	a5,88(sp)
20002126:	4566                	lw	a0,88(sp)
20002128:	8622                	mv	a2,s0
2000212a:	86a6                	mv	a3,s1
2000212c:	4a2030ef          	jal	200055ce <__gedf2>
20002130:	14a05863          	blez	a0,20002280 <_ftoa+0x496>
20002134:	66666537          	lui	a0,0x66666
20002138:	66750513          	addi	a0,a0,1639 # 66666667 <__StackTop+0x465e4667>
2000213c:	02000893          	li	a7,32
20002140:	a01d                	j	20002166 <_ftoa+0x37c>
20002142:	02ad97b3          	mulh	a5,s11,a0
20002146:	0c85                	addi	s9,s9,1
20002148:	019d06b3          	add	a3,s10,s9
2000214c:	8789                	srai	a5,a5,0x2
2000214e:	8f99                	sub	a5,a5,a4
20002150:	20f7c733          	sh2add	a4,a5,a5
20002154:	0706                	slli	a4,a4,0x1
20002156:	40ed8db3          	sub	s11,s11,a4
2000215a:	030d8713          	addi	a4,s11,48
2000215e:	fee68fa3          	sb	a4,-1(a3)
20002162:	8dbe                	mv	s11,a5
20002164:	cf9d                	beqz	a5,200021a2 <_ftoa+0x3b8>
20002166:	41fdd713          	srai	a4,s11,0x1f
2000216a:	fd1c9ce3          	bne	s9,a7,20002142 <_ftoa+0x358>
2000216e:	003bf693          	andi	a3,s7,3
20002172:	4605                	li	a2,1
20002174:	04c69963          	bne	a3,a2,200021c6 <_ftoa+0x3dc>
20002178:	040a8763          	beqz	s5,200021c6 <_ftoa+0x3dc>
2000217c:	57e2                	lw	a5,56(sp)
2000217e:	cbd1                	beqz	a5,20002212 <_ftoa+0x428>
20002180:	1afd                	addi	s5,s5,-1
20002182:	055cf263          	bgeu	s9,s5,200021c6 <_ftoa+0x3dc>
20002186:	02000613          	li	a2,32
2000218a:	03000593          	li	a1,48
2000218e:	02cc8c63          	beq	s9,a2,200021c6 <_ftoa+0x3dc>
20002192:	0c85                	addi	s9,s9,1
20002194:	019d07b3          	add	a5,s10,s9
20002198:	feb78fa3          	sb	a1,-1(a5)
2000219c:	ff5ce9e3          	bltu	s9,s5,2000218e <_ftoa+0x3a4>
200021a0:	a031                	j	200021ac <_ftoa+0x3c2>
200021a2:	003bf693          	andi	a3,s7,3
200021a6:	4605                	li	a2,1
200021a8:	16c68563          	beq	a3,a2,20002312 <_ftoa+0x528>
200021ac:	02000693          	li	a3,32
200021b0:	00dc8b63          	beq	s9,a3,200021c6 <_ftoa+0x3dc>
200021b4:	57e2                	lw	a5,56(sp)
200021b6:	cba5                	beqz	a5,20002226 <_ftoa+0x43c>
200021b8:	02d00613          	li	a2,45
200021bc:	002c86b3          	add	a3,s9,sp
200021c0:	06c68023          	sb	a2,96(a3)
200021c4:	0c85                	addi	s9,s9,1
200021c6:	876a                	mv	a4,s10
200021c8:	88de                	mv	a7,s7
200021ca:	8856                	mv	a6,s5
200021cc:	87e6                	mv	a5,s9
200021ce:	86d2                	mv	a3,s4
200021d0:	865a                	mv	a2,s6
200021d2:	85ce                	mv	a1,s3
200021d4:	854a                	mv	a0,s2
200021d6:	92dff0ef          	jal	20001b02 <_out_rev>
200021da:	84aa                	mv	s1,a0
200021dc:	4d4a                	lw	s10,144(sp)
200021de:	4dba                	lw	s11,140(sp)
200021e0:	b5ed                	j	200020ca <_ftoa+0x2e0>
200021e2:	47c2                	lw	a5,16(sp)
200021e4:	c446                	sw	a7,8(sp)
200021e6:	c01a                	sw	t1,0(sp)
200021e8:	c0be                	sw	a5,64(sp)
200021ea:	5782                	lw	a5,32(sp)
200021ec:	4506                	lw	a0,64(sp)
200021ee:	c2be                	sw	a5,68(sp)
200021f0:	200077b7          	lui	a5,0x20007
200021f4:	4596                	lw	a1,68(sp)
200021f6:	db87a603          	lw	a2,-584(a5) # 20006db8 <blink_program+0x2c>
200021fa:	dbc7a683          	lw	a3,-580(a5)
200021fe:	48e030ef          	jal	2000568c <__ledf2>
20002202:	4302                	lw	t1,0(sp)
20002204:	48a2                	lw	a7,8(sp)
20002206:	d6054be3          	bltz	a0,20001f7c <_ftoa+0x192>
2000220a:	08031063          	bnez	t1,2000228a <_ftoa+0x4a0>
2000220e:	0305                	addi	t1,t1,1
20002210:	b3b5                	j	20001f7c <_ftoa+0x192>
20002212:	00cbf693          	andi	a3,s7,12
20002216:	cafd                	beqz	a3,2000230c <_ftoa+0x522>
20002218:	1afd                	addi	s5,s5,-1
2000221a:	f75ce6e3          	bltu	s9,s5,20002186 <_ftoa+0x39c>
2000221e:	02000693          	li	a3,32
20002222:	fadc82e3          	beq	s9,a3,200021c6 <_ftoa+0x3dc>
20002226:	004bf693          	andi	a3,s7,4
2000222a:	ce95                	beqz	a3,20002266 <_ftoa+0x47c>
2000222c:	02b00613          	li	a2,43
20002230:	b771                	j	200021bc <_ftoa+0x3d2>
20002232:	03cc8063          	beq	s9,t3,20002252 <_ftoa+0x468>
20002236:	98e6                	add	a7,a7,s9
20002238:	03000593          	li	a1,48
2000223c:	02000613          	li	a2,32
20002240:	01988c63          	beq	a7,s9,20002258 <_ftoa+0x46e>
20002244:	0c85                	addi	s9,s9,1
20002246:	019d07b3          	add	a5,s10,s9
2000224a:	feb78fa3          	sb	a1,-1(a5)
2000224e:	fecc99e3          	bne	s9,a2,20002240 <_ftoa+0x456>
20002252:	02000c93          	li	s9,32
20002256:	bdf9                	j	20002134 <_ftoa+0x34a>
20002258:	988a                	add	a7,a7,sp
2000225a:	02e00693          	li	a3,46
2000225e:	0c85                	addi	s9,s9,1
20002260:	06d88023          	sb	a3,96(a7)
20002264:	bdc1                	j	20002134 <_ftoa+0x34a>
20002266:	008bf693          	andi	a3,s7,8
2000226a:	deb1                	beqz	a3,200021c6 <_ftoa+0x3dc>
2000226c:	02000613          	li	a2,32
20002270:	00cc87b3          	add	a5,s9,a2
20002274:	002786b3          	add	a3,a5,sp
20002278:	04c68023          	sb	a2,64(a3)
2000227c:	0c85                	addi	s9,s9,1
2000227e:	b7a1                	j	200021c6 <_ftoa+0x3dc>
20002280:	001d8813          	addi	a6,s11,1
20002284:	ffe87d93          	andi	s11,a6,-2
20002288:	b575                	j	20002134 <_ftoa+0x34a>
2000228a:	00137693          	andi	a3,t1,1
2000228e:	ce0687e3          	beqz	a3,20001f7c <_ftoa+0x192>
20002292:	0305                	addi	t1,t1,1
20002294:	b1e5                	j	20001f7c <_ftoa+0x192>
20002296:	003bf793          	andi	a5,s7,3
2000229a:	845a                	mv	s0,s6
2000229c:	e38d                	bnez	a5,200022be <_ftoa+0x4d4>
2000229e:	478d                	li	a5,3
200022a0:	0157ff63          	bgeu	a5,s5,200022be <_ftoa+0x4d4>
200022a4:	ffdb0413          	addi	s0,s6,-3
200022a8:	9456                	add	s0,s0,s5
200022aa:	84da                	mv	s1,s6
200022ac:	8626                	mv	a2,s1
200022ae:	86d2                	mv	a3,s4
200022b0:	0485                	addi	s1,s1,1
200022b2:	85ce                	mv	a1,s3
200022b4:	02000513          	li	a0,32
200022b8:	9902                	jalr	s2
200022ba:	fe9419e3          	bne	s0,s1,200022ac <_ftoa+0x4c2>
200022be:	200074b7          	lui	s1,0x20007
200022c2:	94848493          	addi	s1,s1,-1720 # 20006948 <strlen+0x1b6>
200022c6:	ffd48c93          	addi	s9,s1,-3
200022ca:	8c22                	mv	s8,s0
200022cc:	0024c503          	lbu	a0,2(s1)
200022d0:	8662                	mv	a2,s8
200022d2:	86d2                	mv	a3,s4
200022d4:	85ce                	mv	a1,s3
200022d6:	14fd                	addi	s1,s1,-1
200022d8:	0c05                	addi	s8,s8,1
200022da:	9902                	jalr	s2
200022dc:	ff9498e3          	bne	s1,s9,200022cc <_ftoa+0x4e2>
200022e0:	002bfb93          	andi	s7,s7,2
200022e4:	00340493          	addi	s1,s0,3
200022e8:	de0b81e3          	beqz	s7,200020ca <_ftoa+0x2e0>
200022ec:	416487b3          	sub	a5,s1,s6
200022f0:	dd57fde3          	bgeu	a5,s5,200020ca <_ftoa+0x2e0>
200022f4:	8626                	mv	a2,s1
200022f6:	86d2                	mv	a3,s4
200022f8:	85ce                	mv	a1,s3
200022fa:	02000513          	li	a0,32
200022fe:	0485                	addi	s1,s1,1
20002300:	9902                	jalr	s2
20002302:	416487b3          	sub	a5,s1,s6
20002306:	ff57e7e3          	bltu	a5,s5,200022f4 <_ftoa+0x50a>
2000230a:	b3c1                	j	200020ca <_ftoa+0x2e0>
2000230c:	e75cede3          	bltu	s9,s5,20002186 <_ftoa+0x39c>
20002310:	bd5d                	j	200021c6 <_ftoa+0x3dc>
20002312:	e80a8de3          	beqz	s5,200021ac <_ftoa+0x3c2>
20002316:	57e2                	lw	a5,56(sp)
20002318:	ee078de3          	beqz	a5,20002212 <_ftoa+0x428>
2000231c:	1afd                	addi	s5,s5,-1
2000231e:	e75ce4e3          	bltu	s9,s5,20002186 <_ftoa+0x39c>
20002322:	e91c9be3          	bne	s9,a7,200021b8 <_ftoa+0x3ce>
20002326:	b545                	j	200021c6 <_ftoa+0x3dc>

20002328 <_etoa>:
20002328:	710d                	addi	sp,sp,-352
2000232a:	15212823          	sw	s2,336(sp)
2000232e:	15312623          	sw	s3,332(sp)
20002332:	15412423          	sw	s4,328(sp)
20002336:	13b12623          	sw	s11,300(sp)
2000233a:	892a                	mv	s2,a0
2000233c:	89ae                	mv	s3,a1
2000233e:	8db2                	mv	s11,a2
20002340:	8a36                	mv	s4,a3
20002342:	853a                	mv	a0,a4
20002344:	85be                	mv	a1,a5
20002346:	863a                	mv	a2,a4
20002348:	86be                	mv	a3,a5
2000234a:	14812c23          	sw	s0,344(sp)
2000234e:	14912a23          	sw	s1,340(sp)
20002352:	15512223          	sw	s5,324(sp)
20002356:	13a12823          	sw	s10,304(sp)
2000235a:	14112e23          	sw	ra,348(sp)
2000235e:	16012d03          	lw	s10,352(sp)
20002362:	843a                	mv	s0,a4
20002364:	84be                	mv	s1,a5
20002366:	c1c2                	sw	a6,192(sp)
20002368:	8ac6                	mv	s5,a7
2000236a:	1ee040ef          	jal	20006558 <__unorddf2>
2000236e:	1a051f63          	bnez	a0,2000252c <_etoa+0x204>
20002372:	200077b7          	lui	a5,0x20007
20002376:	da07a603          	lw	a2,-608(a5) # 20006da0 <blink_program+0x14>
2000237a:	da47a683          	lw	a3,-604(a5)
2000237e:	8522                	mv	a0,s0
20002380:	85a6                	mv	a1,s1
20002382:	13812c23          	sw	s8,312(sp)
20002386:	13912a23          	sw	s9,308(sp)
2000238a:	244030ef          	jal	200055ce <__gedf2>
2000238e:	18a04b63          	bgtz	a0,20002524 <_etoa+0x1fc>
20002392:	200077b7          	lui	a5,0x20007
20002396:	d987a603          	lw	a2,-616(a5) # 20006d98 <blink_program+0xc>
2000239a:	d9c7a683          	lw	a3,-612(a5)
2000239e:	8522                	mv	a0,s0
200023a0:	85a6                	mv	a1,s1
200023a2:	15612023          	sw	s6,320(sp)
200023a6:	13712e23          	sw	s7,316(sp)
200023aa:	2e2030ef          	jal	2000568c <__ledf2>
200023ae:	1c054063          	bltz	a0,2000256e <_etoa+0x246>
200023b2:	cc22                	sw	s0,24(sp)
200023b4:	ce26                	sw	s1,28(sp)
200023b6:	4562                	lw	a0,24(sp)
200023b8:	45f2                	lw	a1,28(sp)
200023ba:	4601                	li	a2,0
200023bc:	4681                	li	a3,0
200023be:	2ce030ef          	jal	2000568c <__ledf2>
200023c2:	69f49b13          	binvi	s6,s1,0x1f
200023c6:	00054463          	bltz	a0,200023ce <_etoa+0xa6>
200023ca:	cc22                	sw	s0,24(sp)
200023cc:	8b26                	mv	s6,s1
200023ce:	28b01793          	bseti	a5,zero,0xb
200023d2:	00fd76b3          	and	a3,s10,a5
200023d6:	400d7713          	andi	a4,s10,1024
200023da:	c3ba                	sw	a4,196(sp)
200023dc:	c836                	sw	a3,16(sp)
200023de:	016467b3          	or	a5,s0,s6
200023e2:	18071f63          	bnez	a4,20002580 <_etoa+0x258>
200023e6:	1e079863          	bnez	a5,200025d6 <_etoa+0x2ae>
200023ea:	4e069e63          	bnez	a3,200028e6 <_etoa+0x5be>
200023ee:	4799                	li	a5,6
200023f0:	c1be                	sw	a5,192(sp)
200023f2:	002d7c93          	andi	s9,s10,2
200023f6:	4e0c9a63          	bnez	s9,200028ea <_etoa+0x5c2>
200023fa:	4c11                	li	s8,4
200023fc:	0b8af7b3          	maxu	a5,s5,s8
20002400:	17f1                	addi	a5,a5,-4
20002402:	c83e                	sw	a5,16(sp)
20002404:	4b81                	li	s7,0
20002406:	d022                	sw	s0,32(sp)
20002408:	d226                	sw	s1,36(sp)
2000240a:	5502                	lw	a0,32(sp)
2000240c:	5592                	lw	a1,36(sp)
2000240e:	4601                	li	a2,0
20002410:	4681                	li	a3,0
20002412:	27a030ef          	jal	2000568c <__ledf2>
20002416:	4e054463          	bltz	a0,200028fe <_etoa+0x5d6>
2000241a:	47e2                	lw	a5,24(sp)
2000241c:	df5a                	sw	s6,188(sp)
2000241e:	dd3e                	sw	a5,184(sp)
20002420:	576a                	lw	a4,184(sp)
20002422:	57fa                	lw	a5,188(sp)
20002424:	480e                	lw	a6,192(sp)
20002426:	48c2                	lw	a7,16(sp)
20002428:	fffd7693          	andi	a3,s10,-1
2000242c:	48b69693          	bclri	a3,a3,0xb
20002430:	485d5d13          	bexti	s10,s10,0x5
20002434:	c036                	sw	a3,0(sp)
20002436:	866e                	mv	a2,s11
20002438:	86d2                	mv	a3,s4
2000243a:	85ce                	mv	a1,s3
2000243c:	854a                	mv	a0,s2
2000243e:	1d7d                	addi	s10,s10,-1
20002440:	9abff0ef          	jal	20001dea <_ftoa>
20002444:	020d7d13          	andi	s10,s10,32
20002448:	862a                	mv	a2,a0
2000244a:	86d2                	mv	a3,s4
2000244c:	045d0513          	addi	a0,s10,69
20002450:	85ce                	mv	a1,s3
20002452:	00160413          	addi	s0,a2,1
20002456:	9902                	jalr	s2
20002458:	417006b3          	neg	a3,s7
2000245c:	ccccd337          	lui	t1,0xccccd
20002460:	1c7d                	addi	s8,s8,-1
20002462:	0adbe6b3          	max	a3,s7,a3
20002466:	01fbd813          	srli	a6,s7,0x1f
2000246a:	0218                	addi	a4,sp,256
2000246c:	ccd30313          	addi	t1,t1,-819 # cccccccd <__StackTop+0xacc4accd>
20002470:	4781                	li	a5,0
20002472:	4e25                	li	t3,9
20002474:	02000e93          	li	t4,32
20002478:	a019                	j	2000247e <_etoa+0x156>
2000247a:	03d78463          	beq	a5,t4,200024a2 <_etoa+0x17a>
2000247e:	0266b633          	mulhu	a2,a3,t1
20002482:	0785                	addi	a5,a5,1
20002484:	8536                	mv	a0,a3
20002486:	00f708b3          	add	a7,a4,a5
2000248a:	820d                	srli	a2,a2,0x3
2000248c:	20c645b3          	sh2add	a1,a2,a2
20002490:	0586                	slli	a1,a1,0x1
20002492:	8e8d                	sub	a3,a3,a1
20002494:	03068693          	addi	a3,a3,48
20002498:	fed88fa3          	sb	a3,-1(a7)
2000249c:	86b2                	mv	a3,a2
2000249e:	fcae6ee3          	bltu	t3,a0,2000247a <_etoa+0x152>
200024a2:	4695                	li	a3,5
200024a4:	c436                	sw	a3,8(sp)
200024a6:	c262                	sw	s8,4(sp)
200024a8:	c002                	sw	zero,0(sp)
200024aa:	8622                	mv	a2,s0
200024ac:	48a9                	li	a7,10
200024ae:	86d2                	mv	a3,s4
200024b0:	85ce                	mv	a1,s3
200024b2:	854a                	mv	a0,s2
200024b4:	f06ff0ef          	jal	20001bba <_ntoa_format>
200024b8:	020c8a63          	beqz	s9,200024ec <_etoa+0x1c4>
200024bc:	41b50433          	sub	s0,a0,s11
200024c0:	03547663          	bgeu	s0,s5,200024ec <_etoa+0x1c4>
200024c4:	84aa                	mv	s1,a0
200024c6:	008d8633          	add	a2,s11,s0
200024ca:	86d2                	mv	a3,s4
200024cc:	85ce                	mv	a1,s3
200024ce:	02000513          	li	a0,32
200024d2:	0405                	addi	s0,s0,1
200024d4:	9902                	jalr	s2
200024d6:	ff5468e3          	bltu	s0,s5,200024c6 <_etoa+0x19e>
200024da:	41b48733          	sub	a4,s1,s11
200024de:	0705                	addi	a4,a4,1
200024e0:	8526                	mv	a0,s1
200024e2:	4781                	li	a5,0
200024e4:	40eaf863          	bgeu	s5,a4,200028f4 <_etoa+0x5cc>
200024e8:	0505                	addi	a0,a0,1
200024ea:	953e                	add	a0,a0,a5
200024ec:	15c12083          	lw	ra,348(sp)
200024f0:	15812403          	lw	s0,344(sp)
200024f4:	14012b03          	lw	s6,320(sp)
200024f8:	13c12b83          	lw	s7,316(sp)
200024fc:	13812c03          	lw	s8,312(sp)
20002500:	13412c83          	lw	s9,308(sp)
20002504:	15412483          	lw	s1,340(sp)
20002508:	15012903          	lw	s2,336(sp)
2000250c:	14c12983          	lw	s3,332(sp)
20002510:	14812a03          	lw	s4,328(sp)
20002514:	14412a83          	lw	s5,324(sp)
20002518:	13012d03          	lw	s10,304(sp)
2000251c:	12c12d83          	lw	s11,300(sp)
20002520:	6135                	addi	sp,sp,352
20002522:	8082                	ret
20002524:	13812c03          	lw	s8,312(sp)
20002528:	13412c83          	lw	s9,308(sp)
2000252c:	c822                	sw	s0,16(sp)
2000252e:	ca26                	sw	s1,20(sp)
20002530:	4742                	lw	a4,16(sp)
20002532:	47d2                	lw	a5,20(sp)
20002534:	480e                	lw	a6,192(sp)
20002536:	17a12023          	sw	s10,352(sp)
2000253a:	88d6                	mv	a7,s5
2000253c:	86d2                	mv	a3,s4
2000253e:	866e                	mv	a2,s11
20002540:	85ce                	mv	a1,s3
20002542:	854a                	mv	a0,s2
20002544:	15812403          	lw	s0,344(sp)
20002548:	15c12083          	lw	ra,348(sp)
2000254c:	15412483          	lw	s1,340(sp)
20002550:	15012903          	lw	s2,336(sp)
20002554:	14c12983          	lw	s3,332(sp)
20002558:	14812a03          	lw	s4,328(sp)
2000255c:	14412a83          	lw	s5,324(sp)
20002560:	13012d03          	lw	s10,304(sp)
20002564:	12c12d83          	lw	s11,300(sp)
20002568:	6135                	addi	sp,sp,352
2000256a:	881ff06f          	j	20001dea <_ftoa>
2000256e:	14012b03          	lw	s6,320(sp)
20002572:	13c12b83          	lw	s7,316(sp)
20002576:	13812c03          	lw	s8,312(sp)
2000257a:	13412c83          	lw	s9,308(sp)
2000257e:	b77d                	j	2000252c <_etoa+0x204>
20002580:	efa9                	bnez	a5,200025da <_etoa+0x2b2>
20002582:	e60688e3          	beqz	a3,200023f2 <_etoa+0xca>
20002586:	4b81                	li	s7,0
20002588:	478e                	lw	a5,192(sp)
2000258a:	4c01                	li	s8,0
2000258c:	38fbc763          	blt	s7,a5,2000291a <_etoa+0x5f2>
20002590:	c5a2                	sw	s0,200(sp)
20002592:	c7a6                	sw	s1,204(sp)
20002594:	452e                	lw	a0,200(sp)
20002596:	45be                	lw	a1,204(sp)
20002598:	4601                	li	a2,0
2000259a:	4681                	li	a3,0
2000259c:	0f0030ef          	jal	2000568c <__ledf2>
200025a0:	32054c63          	bltz	a0,200028d8 <_etoa+0x5b0>
200025a4:	d1a2                	sw	s0,224(sp)
200025a6:	d3da                	sw	s6,228(sp)
200025a8:	570e                	lw	a4,224(sp)
200025aa:	579e                	lw	a5,228(sp)
200025ac:	48bd1d13          	bclri	s10,s10,0xb
200025b0:	400d6d13          	ori	s10,s10,1024
200025b4:	8862                	mv	a6,s8
200025b6:	14012b03          	lw	s6,320(sp)
200025ba:	13c12b83          	lw	s7,316(sp)
200025be:	13812c03          	lw	s8,312(sp)
200025c2:	13412c83          	lw	s9,308(sp)
200025c6:	17a12023          	sw	s10,352(sp)
200025ca:	88d6                	mv	a7,s5
200025cc:	86d2                	mv	a3,s4
200025ce:	866e                	mv	a2,s11
200025d0:	85ce                	mv	a1,s3
200025d2:	854a                	mv	a0,s2
200025d4:	bf85                	j	20002544 <_etoa+0x21c>
200025d6:	4799                	li	a5,6
200025d8:	c1be                	sw	a5,192(sp)
200025da:	014b5513          	srli	a0,s6,0x14
200025de:	7ff57513          	andi	a0,a0,2047
200025e2:	c0150513          	addi	a0,a0,-1023
200025e6:	06c040ef          	jal	20006652 <__floatsidf>
200025ea:	200077b7          	lui	a5,0x20007
200025ee:	dc07a603          	lw	a2,-576(a5) # 20006dc0 <blink_program+0x34>
200025f2:	dc47a683          	lw	a3,-572(a5)
200025f6:	156030ef          	jal	2000574c <__muldf3>
200025fa:	200077b7          	lui	a5,0x20007
200025fe:	dc87a603          	lw	a2,-568(a5) # 20006dc8 <blink_program+0x3c>
20002602:	dcc7a683          	lw	a3,-564(a5)
20002606:	114020ef          	jal	2000471a <__adddf3>
2000260a:	00cb1793          	slli	a5,s6,0xc
2000260e:	3ff00637          	lui	a2,0x3ff00
20002612:	83b1                	srli	a5,a5,0xc
20002614:	8fd1                	or	a5,a5,a2
20002616:	d63e                	sw	a5,44(sp)
20002618:	d422                	sw	s0,40(sp)
2000261a:	200077b7          	lui	a5,0x20007
2000261e:	dd07a603          	lw	a2,-560(a5) # 20006dd0 <blink_program+0x44>
20002622:	dd47a683          	lw	a3,-556(a5)
20002626:	8c2a                	mv	s8,a0
20002628:	8bae                	mv	s7,a1
2000262a:	5522                	lw	a0,40(sp)
2000262c:	55b2                	lw	a1,44(sp)
2000262e:	674030ef          	jal	20005ca2 <__subdf3>
20002632:	200077b7          	lui	a5,0x20007
20002636:	dd87a603          	lw	a2,-552(a5) # 20006dd8 <blink_program+0x4c>
2000263a:	ddc7a683          	lw	a3,-548(a5)
2000263e:	10e030ef          	jal	2000574c <__muldf3>
20002642:	d862                	sw	s8,48(sp)
20002644:	da5e                	sw	s7,52(sp)
20002646:	862a                	mv	a2,a0
20002648:	86ae                	mv	a3,a1
2000264a:	5542                	lw	a0,48(sp)
2000264c:	55d2                	lw	a1,52(sp)
2000264e:	0cc020ef          	jal	2000471a <__adddf3>
20002652:	743030ef          	jal	20006594 <__fixdfsi>
20002656:	8baa                	mv	s7,a0
20002658:	7fb030ef          	jal	20006652 <__floatsidf>
2000265c:	200077b7          	lui	a5,0x20007
20002660:	de07a603          	lw	a2,-544(a5) # 20006de0 <blink_program+0x54>
20002664:	de47a683          	lw	a3,-540(a5)
20002668:	8caa                	mv	s9,a0
2000266a:	8c2e                	mv	s8,a1
2000266c:	0e0030ef          	jal	2000574c <__muldf3>
20002670:	200077b7          	lui	a5,0x20007
20002674:	db87a603          	lw	a2,-584(a5) # 20006db8 <blink_program+0x2c>
20002678:	dbc7a683          	lw	a3,-580(a5)
2000267c:	09e020ef          	jal	2000471a <__adddf3>
20002680:	715030ef          	jal	20006594 <__fixdfsi>
20002684:	20007737          	lui	a4,0x20007
20002688:	dc66                	sw	s9,56(sp)
2000268a:	de62                	sw	s8,60(sp)
2000268c:	de872603          	lw	a2,-536(a4) # 20006de8 <blink_program+0x5c>
20002690:	87aa                	mv	a5,a0
20002692:	55f2                	lw	a1,60(sp)
20002694:	5562                	lw	a0,56(sp)
20002696:	dec72683          	lw	a3,-532(a4)
2000269a:	8c3e                	mv	s8,a5
2000269c:	0b0030ef          	jal	2000574c <__muldf3>
200026a0:	8caa                	mv	s9,a0
200026a2:	8562                	mv	a0,s8
200026a4:	d462                	sw	s8,40(sp)
200026a6:	8c2e                	mv	s8,a1
200026a8:	7ab030ef          	jal	20006652 <__floatsidf>
200026ac:	200077b7          	lui	a5,0x20007
200026b0:	df07a603          	lw	a2,-528(a5) # 20006df0 <blink_program+0x64>
200026b4:	df47a683          	lw	a3,-524(a5)
200026b8:	094030ef          	jal	2000574c <__muldf3>
200026bc:	c0e6                	sw	s9,64(sp)
200026be:	c2e2                	sw	s8,68(sp)
200026c0:	862a                	mv	a2,a0
200026c2:	86ae                	mv	a3,a1
200026c4:	4506                	lw	a0,64(sp)
200026c6:	4596                	lw	a1,68(sp)
200026c8:	5da030ef          	jal	20005ca2 <__subdf3>
200026cc:	c4aa                	sw	a0,72(sp)
200026ce:	c6ae                	sw	a1,76(sp)
200026d0:	4626                	lw	a2,72(sp)
200026d2:	46b6                	lw	a3,76(sp)
200026d4:	dc2a                	sw	a0,56(sp)
200026d6:	d82e                	sw	a1,48(sp)
200026d8:	074030ef          	jal	2000574c <__muldf3>
200026dc:	57c2                	lw	a5,48(sp)
200026de:	5762                	lw	a4,56(sp)
200026e0:	8caa                	mv	s9,a0
200026e2:	cabe                	sw	a5,84(sp)
200026e4:	c8ba                	sw	a4,80(sp)
200026e6:	ccba                	sw	a4,88(sp)
200026e8:	cebe                	sw	a5,92(sp)
200026ea:	8c2e                	mv	s8,a1
200026ec:	4646                	lw	a2,80(sp)
200026ee:	46d6                	lw	a3,84(sp)
200026f0:	4566                	lw	a0,88(sp)
200026f2:	45f6                	lw	a1,92(sp)
200026f4:	c0be                	sw	a5,64(sp)
200026f6:	024020ef          	jal	2000471a <__adddf3>
200026fa:	200076b7          	lui	a3,0x20007
200026fe:	d0e6                	sw	s9,96(sp)
20002700:	d2e2                	sw	s8,100(sp)
20002702:	88aa                	mv	a7,a0
20002704:	882e                	mv	a6,a1
20002706:	df86a603          	lw	a2,-520(a3) # 20006df8 <blink_program+0x6c>
2000270a:	5506                	lw	a0,96(sp)
2000270c:	dfc6a683          	lw	a3,-516(a3)
20002710:	5596                	lw	a1,100(sp)
20002712:	dc46                	sw	a7,56(sp)
20002714:	d842                	sw	a6,48(sp)
20002716:	0cb020ef          	jal	20004fe0 <__divdf3>
2000271a:	20007337          	lui	t1,0x20007
2000271e:	e0032603          	lw	a2,-512(t1) # 20006e00 <blink_program+0x74>
20002722:	e0432683          	lw	a3,-508(t1)
20002726:	7f5010ef          	jal	2000471a <__adddf3>
2000272a:	d4e6                	sw	s9,104(sp)
2000272c:	d6e2                	sw	s8,108(sp)
2000272e:	862a                	mv	a2,a0
20002730:	86ae                	mv	a3,a1
20002732:	5526                	lw	a0,104(sp)
20002734:	55b6                	lw	a1,108(sp)
20002736:	0ab020ef          	jal	20004fe0 <__divdf3>
2000273a:	200076b7          	lui	a3,0x20007
2000273e:	e086a603          	lw	a2,-504(a3) # 20006e08 <blink_program+0x7c>
20002742:	e0c6a683          	lw	a3,-500(a3)
20002746:	7d5010ef          	jal	2000471a <__adddf3>
2000274a:	d8e6                	sw	s9,112(sp)
2000274c:	dae2                	sw	s8,116(sp)
2000274e:	862a                	mv	a2,a0
20002750:	86ae                	mv	a3,a1
20002752:	5546                	lw	a0,112(sp)
20002754:	55d6                	lw	a1,116(sp)
20002756:	08b020ef          	jal	20004fe0 <__divdf3>
2000275a:	4726                	lw	a4,72(sp)
2000275c:	4786                	lw	a5,64(sp)
2000275e:	8c2a                	mv	s8,a0
20002760:	dcba                	sw	a4,120(sp)
20002762:	debe                	sw	a5,124(sp)
20002764:	200077b7          	lui	a5,0x20007
20002768:	e107a503          	lw	a0,-496(a5) # 20006e10 <blink_program+0x84>
2000276c:	5666                	lw	a2,120(sp)
2000276e:	56f6                	lw	a3,124(sp)
20002770:	8cae                	mv	s9,a1
20002772:	e147a583          	lw	a1,-492(a5)
20002776:	52c030ef          	jal	20005ca2 <__subdf3>
2000277a:	c162                	sw	s8,128(sp)
2000277c:	c366                	sw	s9,132(sp)
2000277e:	862a                	mv	a2,a0
20002780:	86ae                	mv	a3,a1
20002782:	450a                	lw	a0,128(sp)
20002784:	459a                	lw	a1,132(sp)
20002786:	795010ef          	jal	2000471a <__adddf3>
2000278a:	5842                	lw	a6,48(sp)
2000278c:	58e2                	lw	a7,56(sp)
2000278e:	862a                	mv	a2,a0
20002790:	c742                	sw	a6,140(sp)
20002792:	c546                	sw	a7,136(sp)
20002794:	86ae                	mv	a3,a1
20002796:	452a                	lw	a0,136(sp)
20002798:	45ba                	lw	a1,140(sp)
2000279a:	047020ef          	jal	20004fe0 <__divdf3>
2000279e:	200077b7          	lui	a5,0x20007
200027a2:	e187a603          	lw	a2,-488(a5) # 20006e18 <blink_program+0x8c>
200027a6:	e1c7a683          	lw	a3,-484(a5)
200027aa:	771010ef          	jal	2000471a <__adddf3>
200027ae:	57a2                	lw	a5,40(sp)
200027b0:	4701                	li	a4,0
200027b2:	c93a                	sw	a4,144(sp)
200027b4:	3ff78793          	addi	a5,a5,1023
200027b8:	07d2                	slli	a5,a5,0x14
200027ba:	cb3e                	sw	a5,148(sp)
200027bc:	46da                	lw	a3,148(sp)
200027be:	464a                	lw	a2,144(sp)
200027c0:	78d020ef          	jal	2000574c <__muldf3>
200027c4:	cd2a                	sw	a0,152(sp)
200027c6:	d82a                	sw	a0,48(sp)
200027c8:	cf2e                	sw	a1,156(sp)
200027ca:	d42e                	sw	a1,40(sp)
200027cc:	d122                	sw	s0,160(sp)
200027ce:	d35a                	sw	s6,164(sp)
200027d0:	466a                	lw	a2,152(sp)
200027d2:	46fa                	lw	a3,156(sp)
200027d4:	550a                	lw	a0,160(sp)
200027d6:	559a                	lw	a1,164(sp)
200027d8:	6b5020ef          	jal	2000568c <__ledf2>
200027dc:	57a2                	lw	a5,40(sp)
200027de:	5742                	lw	a4,48(sp)
200027e0:	20007337          	lui	t1,0x20007
200027e4:	00055f63          	bgez	a0,20002802 <_etoa+0x4da>
200027e8:	c9ba                	sw	a4,208(sp)
200027ea:	cbbe                	sw	a5,212(sp)
200027ec:	454e                	lw	a0,208(sp)
200027ee:	45de                	lw	a1,212(sp)
200027f0:	e0032603          	lw	a2,-512(t1) # 20006e00 <blink_program+0x74>
200027f4:	e0432683          	lw	a3,-508(t1)
200027f8:	1bfd                	addi	s7,s7,-1
200027fa:	7e6020ef          	jal	20004fe0 <__divdf3>
200027fe:	872a                	mv	a4,a0
20002800:	87ae                	mv	a5,a1
20002802:	063b8693          	addi	a3,s7,99
20002806:	0c600593          	li	a1,198
2000280a:	863a                	mv	a2,a4
2000280c:	853e                	mv	a0,a5
2000280e:	002d7c93          	andi	s9,s10,2
20002812:	02d5eb63          	bltu	a1,a3,20002848 <_etoa+0x520>
20002816:	46c2                	lw	a3,16(sp)
20002818:	4c11                	li	s8,4
2000281a:	e2b1                	bnez	a3,2000285e <_etoa+0x536>
2000281c:	015c7763          	bgeu	s8,s5,2000282a <_etoa+0x502>
20002820:	100c9163          	bnez	s9,20002922 <_etoa+0x5fa>
20002824:	ffca8693          	addi	a3,s5,-4
20002828:	c836                	sw	a3,16(sp)
2000282a:	bc0b8ee3          	beqz	s7,20002406 <_etoa+0xde>
2000282e:	db5a                	sw	s6,180(sp)
20002830:	d53a                	sw	a4,168(sp)
20002832:	d922                	sw	s0,176(sp)
20002834:	d73e                	sw	a5,172(sp)
20002836:	562a                	lw	a2,168(sp)
20002838:	56ba                	lw	a3,172(sp)
2000283a:	554a                	lw	a0,176(sp)
2000283c:	55da                	lw	a1,180(sp)
2000283e:	7a2020ef          	jal	20004fe0 <__divdf3>
20002842:	cc2a                	sw	a0,24(sp)
20002844:	8b2e                	mv	s6,a1
20002846:	b6c1                	j	20002406 <_etoa+0xde>
20002848:	46c2                	lw	a3,16(sp)
2000284a:	4c15                	li	s8,5
2000284c:	ea89                	bnez	a3,2000285e <_etoa+0x536>
2000284e:	ff5c70e3          	bgeu	s8,s5,2000282e <_etoa+0x506>
20002852:	0c0c9c63          	bnez	s9,2000292a <_etoa+0x602>
20002856:	ffba8693          	addi	a3,s5,-5
2000285a:	c836                	sw	a3,16(sp)
2000285c:	bfc9                	j	2000282e <_etoa+0x506>
2000285e:	d43e                	sw	a5,40(sp)
20002860:	c83a                	sw	a4,16(sp)
20002862:	8e49                	or	a2,a2,a0
20002864:	d20602e3          	beqz	a2,20002588 <_etoa+0x260>
20002868:	cda2                	sw	s0,216(sp)
2000286a:	cfda                	sw	s6,220(sp)
2000286c:	200076b7          	lui	a3,0x20007
20002870:	e206a603          	lw	a2,-480(a3) # 20006e20 <blink_program+0x94>
20002874:	456e                	lw	a0,216(sp)
20002876:	45fe                	lw	a1,220(sp)
20002878:	e246a683          	lw	a3,-476(a3)
2000287c:	553020ef          	jal	200055ce <__gedf2>
20002880:	4742                	lw	a4,16(sp)
20002882:	57a2                	lw	a5,40(sp)
20002884:	02054263          	bltz	a0,200028a8 <_etoa+0x580>
20002888:	200076b7          	lui	a3,0x20007
2000288c:	d5a2                	sw	s0,232(sp)
2000288e:	d7da                	sw	s6,236(sp)
20002890:	e286a603          	lw	a2,-472(a3) # 20006e28 <blink_program+0x9c>
20002894:	552e                	lw	a0,232(sp)
20002896:	55be                	lw	a1,236(sp)
20002898:	e2c6a683          	lw	a3,-468(a3)
2000289c:	5f1020ef          	jal	2000568c <__ledf2>
200028a0:	ce0544e3          	bltz	a0,20002588 <_etoa+0x260>
200028a4:	4742                	lw	a4,16(sp)
200028a6:	57a2                	lw	a5,40(sp)
200028a8:	468e                	lw	a3,192(sp)
200028aa:	ce91                	beqz	a3,200028c6 <_etoa+0x59e>
200028ac:	461e                	lw	a2,196(sp)
200028ae:	ce01                	beqz	a2,200028c6 <_etoa+0x59e>
200028b0:	16fd                	addi	a3,a3,-1
200028b2:	c1b6                	sw	a3,192(sp)
200028b4:	015c7563          	bgeu	s8,s5,200028be <_etoa+0x596>
200028b8:	040c8b63          	beqz	s9,2000290e <_etoa+0x5e6>
200028bc:	4c89                	li	s9,2
200028be:	c802                	sw	zero,16(sp)
200028c0:	f60b97e3          	bnez	s7,2000282e <_etoa+0x506>
200028c4:	b689                	j	20002406 <_etoa+0xde>
200028c6:	ff5c7ce3          	bgeu	s8,s5,200028be <_etoa+0x596>
200028ca:	040c8263          	beqz	s9,2000290e <_etoa+0x5e6>
200028ce:	c802                	sw	zero,16(sp)
200028d0:	4c89                	li	s9,2
200028d2:	f40b9ee3          	bnez	s7,2000282e <_etoa+0x506>
200028d6:	be05                	j	20002406 <_etoa+0xde>
200028d8:	69fb1b13          	binvi	s6,s6,0x1f
200028dc:	d9a2                	sw	s0,240(sp)
200028de:	dbda                	sw	s6,244(sp)
200028e0:	574e                	lw	a4,240(sp)
200028e2:	57de                	lw	a5,244(sp)
200028e4:	b1e1                	j	200025ac <_etoa+0x284>
200028e6:	4c15                	li	s8,5
200028e8:	b165                	j	20002590 <_etoa+0x268>
200028ea:	c802                	sw	zero,16(sp)
200028ec:	4b81                	li	s7,0
200028ee:	4c89                	li	s9,2
200028f0:	4c11                	li	s8,4
200028f2:	be11                	j	20002406 <_etoa+0xde>
200028f4:	fffd8793          	addi	a5,s11,-1
200028f8:	97d6                	add	a5,a5,s5
200028fa:	8f85                	sub	a5,a5,s1
200028fc:	b6f5                	j	200024e8 <_etoa+0x1c0>
200028fe:	47e2                	lw	a5,24(sp)
20002900:	69fb1b13          	binvi	s6,s6,0x1f
20002904:	dfda                	sw	s6,252(sp)
20002906:	ddbe                	sw	a5,248(sp)
20002908:	576e                	lw	a4,248(sp)
2000290a:	57fe                	lw	a5,252(sp)
2000290c:	be21                	j	20002424 <_etoa+0xfc>
2000290e:	418a86b3          	sub	a3,s5,s8
20002912:	c836                	sw	a3,16(sp)
20002914:	f00b9de3          	bnez	s7,2000282e <_etoa+0x506>
20002918:	b4fd                	j	20002406 <_etoa+0xde>
2000291a:	41778c33          	sub	s8,a5,s7
2000291e:	1c7d                	addi	s8,s8,-1
20002920:	b985                	j	20002590 <_etoa+0x268>
20002922:	4c89                	li	s9,2
20002924:	f00b95e3          	bnez	s7,2000282e <_etoa+0x506>
20002928:	bcf9                	j	20002406 <_etoa+0xde>
2000292a:	4c89                	li	s9,2
2000292c:	b709                	j	2000282e <_etoa+0x506>

2000292e <_vsnprintf>:
2000292e:	200037b7          	lui	a5,0x20003
20002932:	7135                	addi	sp,sp,-160
20002934:	92e78793          	addi	a5,a5,-1746 # 2000292e <_vsnprintf>
20002938:	cd22                	sw	s0,152(sp)
2000293a:	c552                	sw	s4,136(sp)
2000293c:	dae6                	sw	s9,116(sp)
2000293e:	d8ea                	sw	s10,112(sp)
20002940:	d6ee                	sw	s11,108(sp)
20002942:	cf06                	sw	ra,156(sp)
20002944:	cb26                	sw	s1,148(sp)
20002946:	80f1a823          	sw	a5,-2032(gp) # 20007114 <lazy_vsnprintf>
2000294a:	8cae                	mv	s9,a1
2000294c:	8a32                	mv	s4,a2
2000294e:	8436                	mv	s0,a3
20002950:	8d3a                	mv	s10,a4
20002952:	8daa                	mv	s11,a0
20002954:	3a058163          	beqz	a1,20002cf6 <_vsnprintf+0x3c8>
20002958:	00044503          	lbu	a0,0(s0)
2000295c:	4481                	li	s1,0
2000295e:	3a050563          	beqz	a0,20002d08 <_vsnprintf+0x3da>
20002962:	c74e                	sw	s3,140(sp)
20002964:	c356                	sw	s5,132(sp)
20002966:	c15a                	sw	s6,128(sp)
20002968:	dede                	sw	s7,124(sp)
2000296a:	49c1                	li	s3,16
2000296c:	02500b93          	li	s7,37
20002970:	20007ab7          	lui	s5,0x20007
20002974:	4b25                	li	s6,9
20002976:	a811                	j	2000298a <_vsnprintf+0x5c>
20002978:	8626                	mv	a2,s1
2000297a:	86d2                	mv	a3,s4
2000297c:	85e6                	mv	a1,s9
2000297e:	0485                	addi	s1,s1,1
20002980:	9d82                	jalr	s11
20002982:	00044503          	lbu	a0,0(s0)
20002986:	12050063          	beqz	a0,20002aa6 <_vsnprintf+0x178>
2000298a:	0405                	addi	s0,s0,1
2000298c:	ff7516e3          	bne	a0,s7,20002978 <_vsnprintf+0x4a>
20002990:	4681                	li	a3,0
20002992:	00044503          	lbu	a0,0(s0)
20002996:	00140713          	addi	a4,s0,1
2000299a:	fe050793          	addi	a5,a0,-32
2000299e:	0ff7f793          	zext.b	a5,a5
200029a2:	00f9e863          	bltu	s3,a5,200029b2 <_vsnprintf+0x84>
200029a6:	a3ca8613          	addi	a2,s5,-1476 # 20006a3c <__bi_48+0xc>
200029aa:	20c7c7b3          	sh2add	a5,a5,a2
200029ae:	439c                	lw	a5,0(a5)
200029b0:	8782                	jr	a5
200029b2:	fd050793          	addi	a5,a0,-48
200029b6:	0ff7f793          	zext.b	a5,a5
200029ba:	08fb7d63          	bgeu	s6,a5,20002a54 <_vsnprintf+0x126>
200029be:	02a00793          	li	a5,42
200029c2:	4881                	li	a7,0
200029c4:	1af50363          	beq	a0,a5,20002b6a <_vsnprintf+0x23c>
200029c8:	02e00793          	li	a5,46
200029cc:	4801                	li	a6,0
200029ce:	0af50963          	beq	a0,a5,20002a80 <_vsnprintf+0x152>
200029d2:	f9850793          	addi	a5,a0,-104
200029d6:	0ff7f793          	zext.b	a5,a5
200029da:	4649                	li	a2,18
200029dc:	04f66363          	bltu	a2,a5,20002a22 <_vsnprintf+0xf4>
200029e0:	20007637          	lui	a2,0x20007
200029e4:	a8060613          	addi	a2,a2,-1408 # 20006a80 <__bi_48+0x50>
200029e8:	20c7c7b3          	sh2add	a5,a5,a2
200029ec:	439c                	lw	a5,0(a5)
200029ee:	8782                	jr	a5
200029f0:	0016e693          	ori	a3,a3,1
200029f4:	843a                	mv	s0,a4
200029f6:	bf71                	j	20002992 <_vsnprintf+0x64>
200029f8:	0026e693          	ori	a3,a3,2
200029fc:	843a                	mv	s0,a4
200029fe:	bf51                	j	20002992 <_vsnprintf+0x64>
20002a00:	0046e693          	ori	a3,a3,4
20002a04:	843a                	mv	s0,a4
20002a06:	b771                	j	20002992 <_vsnprintf+0x64>
20002a08:	0106e693          	ori	a3,a3,16
20002a0c:	843a                	mv	s0,a4
20002a0e:	b751                	j	20002992 <_vsnprintf+0x64>
20002a10:	0086e693          	ori	a3,a3,8
20002a14:	843a                	mv	s0,a4
20002a16:	bfb5                	j	20002992 <_vsnprintf+0x64>
20002a18:	00144503          	lbu	a0,1(s0)
20002a1c:	1006e693          	ori	a3,a3,256
20002a20:	0705                	addi	a4,a4,1
20002a22:	06700793          	li	a5,103
20002a26:	843a                	mv	s0,a4
20002a28:	0aa7e763          	bltu	a5,a0,20002ad6 <_vsnprintf+0x1a8>
20002a2c:	02400793          	li	a5,36
20002a30:	f4a7f4e3          	bgeu	a5,a0,20002978 <_vsnprintf+0x4a>
20002a34:	fdb50793          	addi	a5,a0,-37
20002a38:	0ff7f793          	zext.b	a5,a5
20002a3c:	04200713          	li	a4,66
20002a40:	f2f76ce3          	bltu	a4,a5,20002978 <_vsnprintf+0x4a>
20002a44:	20007737          	lui	a4,0x20007
20002a48:	acc70713          	addi	a4,a4,-1332 # 20006acc <__bi_48+0x9c>
20002a4c:	20e7c7b3          	sh2add	a5,a5,a4
20002a50:	439c                	lw	a5,0(a5)
20002a52:	8782                	jr	a5
20002a54:	4881                	li	a7,0
20002a56:	2118c8b3          	sh2add	a7,a7,a7
20002a5a:	20a8a8b3          	sh1add	a7,a7,a0
20002a5e:	00074503          	lbu	a0,0(a4)
20002a62:	843a                	mv	s0,a4
20002a64:	fd088893          	addi	a7,a7,-48
20002a68:	fd050793          	addi	a5,a0,-48
20002a6c:	0ff7f793          	zext.b	a5,a5
20002a70:	0705                	addi	a4,a4,1
20002a72:	fefb72e3          	bgeu	s6,a5,20002a56 <_vsnprintf+0x128>
20002a76:	02e00793          	li	a5,46
20002a7a:	4801                	li	a6,0
20002a7c:	f4f51be3          	bne	a0,a5,200029d2 <_vsnprintf+0xa4>
20002a80:	00144503          	lbu	a0,1(s0)
20002a84:	47a5                	li	a5,9
20002a86:	4006e693          	ori	a3,a3,1024
20002a8a:	fd050593          	addi	a1,a0,-48
20002a8e:	0ff5f593          	zext.b	a1,a1
20002a92:	863a                	mv	a2,a4
20002a94:	28b7fe63          	bgeu	a5,a1,20002d30 <_vsnprintf+0x402>
20002a98:	02a00793          	li	a5,42
20002a9c:	2af50e63          	beq	a0,a5,20002d58 <_vsnprintf+0x42a>
20002aa0:	843a                	mv	s0,a4
20002aa2:	0705                	addi	a4,a4,1
20002aa4:	b73d                	j	200029d2 <_vsnprintf+0xa4>
20002aa6:	49ba                	lw	s3,140(sp)
20002aa8:	4a9a                	lw	s5,132(sp)
20002aaa:	4b0a                	lw	s6,128(sp)
20002aac:	5bf6                	lw	s7,124(sp)
20002aae:	8426                	mv	s0,s1
20002ab0:	0144e463          	bltu	s1,s4,20002ab8 <_vsnprintf+0x18a>
20002ab4:	fffa0493          	addi	s1,s4,-1
20002ab8:	86d2                	mv	a3,s4
20002aba:	8626                	mv	a2,s1
20002abc:	85e6                	mv	a1,s9
20002abe:	4501                	li	a0,0
20002ac0:	9d82                	jalr	s11
20002ac2:	40fa                	lw	ra,156(sp)
20002ac4:	8522                	mv	a0,s0
20002ac6:	446a                	lw	s0,152(sp)
20002ac8:	44da                	lw	s1,148(sp)
20002aca:	4a2a                	lw	s4,136(sp)
20002acc:	5cd6                	lw	s9,116(sp)
20002ace:	5d46                	lw	s10,112(sp)
20002ad0:	5db6                	lw	s11,108(sp)
20002ad2:	610d                	addi	sp,sp,160
20002ad4:	8082                	ret
20002ad6:	f9750713          	addi	a4,a0,-105
20002ada:	0ff77713          	zext.b	a4,a4
20002ade:	47bd                	li	a5,15
20002ae0:	e8e7ece3          	bltu	a5,a4,20002978 <_vsnprintf+0x4a>
20002ae4:	6625                	lui	a2,0x9
20002ae6:	04160613          	addi	a2,a2,65 # 9041 <HeapSize+0x8841>
20002aea:	28e017b3          	bset	a5,zero,a4
20002aee:	8ff1                	and	a5,a5,a2
20002af0:	22079063          	bnez	a5,20002d10 <_vsnprintf+0x3e2>
20002af4:	4629                	li	a2,10
20002af6:	08c70463          	beq	a4,a2,20002b7e <_vsnprintf+0x250>
20002afa:	461d                	li	a2,7
20002afc:	e6c71ee3          	bne	a4,a2,20002978 <_vsnprintf+0x4a>
20002b00:	000d2703          	lw	a4,0(s10)
20002b04:	0d11                	addi	s10,s10,4
20002b06:	26071463          	bnez	a4,20002d6e <_vsnprintf+0x440>
20002b0a:	fef6f593          	andi	a1,a3,-17
20002b0e:	4006f693          	andi	a3,a3,1024
20002b12:	0215e593          	ori	a1,a1,33
20002b16:	0098                	addi	a4,sp,64
20002b18:	ea9d                	bnez	a3,20002b4e <_vsnprintf+0x220>
20002b1a:	0098                	addi	a4,sp,64
20002b1c:	4325                	li	t1,9
20002b1e:	48bd                	li	a7,15
20002b20:	02000e13          	li	t3,32
20002b24:	a021                	j	20002b2c <_vsnprintf+0x1fe>
20002b26:	03c78463          	beq	a5,t3,20002b4e <_vsnprintf+0x220>
20002b2a:	86b2                	mv	a3,a2
20002b2c:	00f6fe93          	andi	t4,a3,15
20002b30:	037e8513          	addi	a0,t4,55
20002b34:	01d36463          	bltu	t1,t4,20002b3c <_vsnprintf+0x20e>
20002b38:	030e8513          	addi	a0,t4,48
20002b3c:	0785                	addi	a5,a5,1
20002b3e:	00f70633          	add	a2,a4,a5
20002b42:	fea60fa3          	sb	a0,-1(a2)
20002b46:	0046d613          	srli	a2,a3,0x4
20002b4a:	fcd8eee3          	bltu	a7,a3,20002b26 <_vsnprintf+0x1f8>
20002b4e:	46a1                	li	a3,8
20002b50:	c042                	sw	a6,0(sp)
20002b52:	c42e                	sw	a1,8(sp)
20002b54:	8626                	mv	a2,s1
20002b56:	c236                	sw	a3,4(sp)
20002b58:	48c1                	li	a7,16
20002b5a:	4801                	li	a6,0
20002b5c:	86d2                	mv	a3,s4
20002b5e:	85e6                	mv	a1,s9
20002b60:	856e                	mv	a0,s11
20002b62:	858ff0ef          	jal	20001bba <_ntoa_format>
20002b66:	84aa                	mv	s1,a0
20002b68:	bd29                	j	20002982 <_vsnprintf+0x54>
20002b6a:	000d2883          	lw	a7,0(s10)
20002b6e:	0d11                	addi	s10,s10,4
20002b70:	0808c263          	bltz	a7,20002bf4 <_vsnprintf+0x2c6>
20002b74:	00144503          	lbu	a0,1(s0)
20002b78:	843a                	mv	s0,a4
20002b7a:	0705                	addi	a4,a4,1
20002b7c:	b5b1                	j	200029c8 <_vsnprintf+0x9a>
20002b7e:	004d0793          	addi	a5,s10,4
20002b82:	c94a                	sw	s2,144(sp)
20002b84:	dce2                	sw	s8,120(sp)
20002b86:	ce3e                	sw	a5,28(sp)
20002b88:	000d2903          	lw	s2,0(s10)
20002b8c:	567d                	li	a2,-1
20002b8e:	00080363          	beqz	a6,20002b94 <_vsnprintf+0x266>
20002b92:	8642                	mv	a2,a6
20002b94:	00094503          	lbu	a0,0(s2)
20002b98:	964a                	add	a2,a2,s2
20002b9a:	87ca                	mv	a5,s2
20002b9c:	50050763          	beqz	a0,200030aa <_vsnprintf+0x77c>
20002ba0:	26f60163          	beq	a2,a5,20002e02 <_vsnprintf+0x4d4>
20002ba4:	0017c703          	lbu	a4,1(a5)
20002ba8:	0785                	addi	a5,a5,1
20002baa:	fb7d                	bnez	a4,20002ba0 <_vsnprintf+0x272>
20002bac:	41278733          	sub	a4,a5,s2
20002bb0:	4006f793          	andi	a5,a3,1024
20002bb4:	8a89                	andi	a3,a3,2
20002bb6:	24078d63          	beqz	a5,20002e10 <_vsnprintf+0x4e2>
20002bba:	0b075733          	minu	a4,a4,a6
20002bbe:	5e068963          	beqz	a3,200031b0 <_vsnprintf+0x882>
20002bc2:	4689                	li	a3,2
20002bc4:	00980c33          	add	s8,a6,s1
20002bc8:	d046                	sw	a7,32(sp)
20002bca:	87a6                	mv	a5,s1
20002bcc:	8d36                	mv	s10,a3
20002bce:	d23a                	sw	a4,36(sp)
20002bd0:	d422                	sw	s0,40(sp)
20002bd2:	28fc0d63          	beq	s8,a5,20002e6c <_vsnprintf+0x53e>
20002bd6:	86d2                	mv	a3,s4
20002bd8:	863e                	mv	a2,a5
20002bda:	85e6                	mv	a1,s9
20002bdc:	00178413          	addi	s0,a5,1
20002be0:	9d82                	jalr	s11
20002be2:	40940733          	sub	a4,s0,s1
20002be6:	974a                	add	a4,a4,s2
20002be8:	00074503          	lbu	a0,0(a4)
20002bec:	28050663          	beqz	a0,20002e78 <_vsnprintf+0x54a>
20002bf0:	87a2                	mv	a5,s0
20002bf2:	b7c5                	j	20002bd2 <_vsnprintf+0x2a4>
20002bf4:	00144503          	lbu	a0,1(s0)
20002bf8:	0026e693          	ori	a3,a3,2
20002bfc:	843a                	mv	s0,a4
20002bfe:	411008b3          	neg	a7,a7
20002c02:	0705                	addi	a4,a4,1
20002c04:	b3d1                	j	200029c8 <_vsnprintf+0x9a>
20002c06:	00144503          	lbu	a0,1(s0)
20002c0a:	06c00793          	li	a5,108
20002c0e:	e0f517e3          	bne	a0,a5,20002a1c <_vsnprintf+0xee>
20002c12:	00244503          	lbu	a0,2(s0)
20002c16:	3006e693          	ori	a3,a3,768
20002c1a:	00340713          	addi	a4,s0,3
20002c1e:	b511                	j	20002a22 <_vsnprintf+0xf4>
20002c20:	00144503          	lbu	a0,1(s0)
20002c24:	2006e693          	ori	a3,a3,512
20002c28:	0705                	addi	a4,a4,1
20002c2a:	bbe5                	j	20002a22 <_vsnprintf+0xf4>
20002c2c:	00144503          	lbu	a0,1(s0)
20002c30:	06800793          	li	a5,104
20002c34:	20f50e63          	beq	a0,a5,20002e50 <_vsnprintf+0x522>
20002c38:	0806e693          	ori	a3,a3,128
20002c3c:	0705                	addi	a4,a4,1
20002c3e:	b3d5                	j	20002a22 <_vsnprintf+0xf4>
20002c40:	06700793          	li	a5,103
20002c44:	12f50963          	beq	a0,a5,20002d76 <_vsnprintf+0x448>
20002c48:	04700793          	li	a5,71
20002c4c:	1af50663          	beq	a0,a5,20002df8 <_vsnprintf+0x4ca>
20002c50:	04500793          	li	a5,69
20002c54:	1af50463          	beq	a0,a5,20002dfc <_vsnprintf+0x4ce>
20002c58:	0d1d                	addi	s10,s10,7
20002c5a:	ff8d7d13          	andi	s10,s10,-8
20002c5e:	000d2703          	lw	a4,0(s10)
20002c62:	004d2783          	lw	a5,4(s10)
20002c66:	8626                	mv	a2,s1
20002c68:	c036                	sw	a3,0(sp)
20002c6a:	85e6                	mv	a1,s9
20002c6c:	86d2                	mv	a3,s4
20002c6e:	856e                	mv	a0,s11
20002c70:	eb8ff0ef          	jal	20002328 <_etoa>
20002c74:	0d21                	addi	s10,s10,8
20002c76:	84aa                	mv	s1,a0
20002c78:	b329                	j	20002982 <_vsnprintf+0x54>
20002c7a:	04600793          	li	a5,70
20002c7e:	0ef50f63          	beq	a0,a5,20002d7c <_vsnprintf+0x44e>
20002c82:	0d1d                	addi	s10,s10,7
20002c84:	ff8d7d13          	andi	s10,s10,-8
20002c88:	000d2703          	lw	a4,0(s10)
20002c8c:	004d2783          	lw	a5,4(s10)
20002c90:	8626                	mv	a2,s1
20002c92:	c036                	sw	a3,0(sp)
20002c94:	85e6                	mv	a1,s9
20002c96:	86d2                	mv	a3,s4
20002c98:	856e                	mv	a0,s11
20002c9a:	950ff0ef          	jal	20001dea <_ftoa>
20002c9e:	0d21                	addi	s10,s10,8
20002ca0:	84aa                	mv	s1,a0
20002ca2:	b1c5                	j	20002982 <_vsnprintf+0x54>
20002ca4:	8626                	mv	a2,s1
20002ca6:	86d2                	mv	a3,s4
20002ca8:	85e6                	mv	a1,s9
20002caa:	02500513          	li	a0,37
20002cae:	0485                	addi	s1,s1,1
20002cb0:	9d82                	jalr	s11
20002cb2:	b9c1                	j	20002982 <_vsnprintf+0x54>
20002cb4:	004d0793          	addi	a5,s10,4
20002cb8:	c94a                	sw	s2,144(sp)
20002cba:	8a89                	andi	a3,a3,2
20002cbc:	ce3e                	sw	a5,28(sp)
20002cbe:	00148913          	addi	s2,s1,1
20002cc2:	1c068263          	beqz	a3,20002e86 <_vsnprintf+0x558>
20002cc6:	000d4503          	lbu	a0,0(s10)
20002cca:	d046                	sw	a7,32(sp)
20002ccc:	8626                	mv	a2,s1
20002cce:	86d2                	mv	a3,s4
20002cd0:	85e6                	mv	a1,s9
20002cd2:	9d82                	jalr	s11
20002cd4:	5882                	lw	a7,32(sp)
20002cd6:	4785                	li	a5,1
20002cd8:	94c6                	add	s1,s1,a7
20002cda:	3f17f963          	bgeu	a5,a7,200030cc <_vsnprintf+0x79e>
20002cde:	864a                	mv	a2,s2
20002ce0:	86d2                	mv	a3,s4
20002ce2:	0905                	addi	s2,s2,1
20002ce4:	85e6                	mv	a1,s9
20002ce6:	02000513          	li	a0,32
20002cea:	9d82                	jalr	s11
20002cec:	fe9919e3          	bne	s2,s1,20002cde <_vsnprintf+0x3b0>
20002cf0:	4d72                	lw	s10,28(sp)
20002cf2:	494a                	lw	s2,144(sp)
20002cf4:	b179                	j	20002982 <_vsnprintf+0x54>
20002cf6:	00044503          	lbu	a0,0(s0)
20002cfa:	20002337          	lui	t1,0x20002
20002cfe:	b0030d93          	addi	s11,t1,-1280 # 20001b00 <_out_null>
20002d02:	4481                	li	s1,0
20002d04:	c4051fe3          	bnez	a0,20002962 <_vsnprintf+0x34>
20002d08:	4401                	li	s0,0
20002d0a:	db44e7e3          	bltu	s1,s4,20002ab8 <_vsnprintf+0x18a>
20002d0e:	b35d                	j	20002ab4 <_vsnprintf+0x186>
20002d10:	06f00793          	li	a5,111
20002d14:	06f50763          	beq	a0,a5,20002d82 <_vsnprintf+0x454>
20002d18:	26a7fe63          	bgeu	a5,a0,20002f94 <_vsnprintf+0x666>
20002d1c:	c94a                	sw	s2,144(sp)
20002d1e:	07800793          	li	a5,120
20002d22:	36f50263          	beq	a0,a5,20003086 <_vsnprintf+0x758>
20002d26:	4629                	li	a2,10
20002d28:	9abd                	andi	a3,a3,-17
20002d2a:	8332                	mv	t1,a2
20002d2c:	4e81                	li	t4,0
20002d2e:	a8b1                	j	20002d8a <_vsnprintf+0x45c>
20002d30:	873e                	mv	a4,a5
20002d32:	21084833          	sh2add	a6,a6,a6
20002d36:	0605                	addi	a2,a2,1
20002d38:	20a82833          	sh1add	a6,a6,a0
20002d3c:	00064503          	lbu	a0,0(a2)
20002d40:	fd080813          	addi	a6,a6,-48
20002d44:	fd050793          	addi	a5,a0,-48
20002d48:	0ff7f793          	zext.b	a5,a5
20002d4c:	fef773e3          	bgeu	a4,a5,20002d32 <_vsnprintf+0x404>
20002d50:	8432                	mv	s0,a2
20002d52:	00160713          	addi	a4,a2,1
20002d56:	b9b5                	j	200029d2 <_vsnprintf+0xa4>
20002d58:	000d2803          	lw	a6,0(s10)
20002d5c:	00244503          	lbu	a0,2(s0)
20002d60:	0409                	addi	s0,s0,2
20002d62:	00140713          	addi	a4,s0,1
20002d66:	0a086833          	max	a6,a6,zero
20002d6a:	0d11                	addi	s10,s10,4
20002d6c:	b19d                	j	200029d2 <_vsnprintf+0xa4>
20002d6e:	0216e593          	ori	a1,a3,33
20002d72:	86ba                	mv	a3,a4
20002d74:	b35d                	j	20002b1a <_vsnprintf+0x1ec>
20002d76:	28b69693          	bseti	a3,a3,0xb
20002d7a:	bdf9                	j	20002c58 <_vsnprintf+0x32a>
20002d7c:	0206e693          	ori	a3,a3,32
20002d80:	b709                	j	20002c82 <_vsnprintf+0x354>
20002d82:	4621                	li	a2,8
20002d84:	c94a                	sw	s2,144(sp)
20002d86:	8332                	mv	t1,a2
20002d88:	4e81                	li	t4,0
20002d8a:	4006f513          	andi	a0,a3,1024
20002d8e:	ff36fe13          	andi	t3,a3,-13
20002d92:	c119                	beqz	a0,20002d98 <_vsnprintf+0x46a>
20002d94:	ff26fe13          	andi	t3,a3,-14
20002d98:	200e7593          	andi	a1,t3,512
20002d9c:	32059a63          	bnez	a1,200030d0 <_vsnprintf+0x7a2>
20002da0:	100e7793          	andi	a5,t3,256
20002da4:	004d0913          	addi	s2,s10,4
20002da8:	4e079d63          	bnez	a5,200032a2 <_vsnprintf+0x974>
20002dac:	040e7713          	andi	a4,t3,64
20002db0:	2e071663          	bnez	a4,2000309c <_vsnprintf+0x76e>
20002db4:	080e7713          	andi	a4,t3,128
20002db8:	58070263          	beqz	a4,2000333c <_vsnprintf+0xa0e>
20002dbc:	000d5603          	lhu	a2,0(s10)
20002dc0:	34061b63          	bnez	a2,20003116 <_vsnprintf+0x7e8>
20002dc4:	fefe7e13          	andi	t3,t3,-17
20002dc8:	34050763          	beqz	a0,20003116 <_vsnprintf+0x7e8>
20002dcc:	4781                	li	a5,0
20002dce:	0098                	addi	a4,sp,64
20002dd0:	c246                	sw	a7,4(sp)
20002dd2:	c472                	sw	t3,8(sp)
20002dd4:	c042                	sw	a6,0(sp)
20002dd6:	889a                	mv	a7,t1
20002dd8:	8626                	mv	a2,s1
20002dda:	4801                	li	a6,0
20002ddc:	a25d                	j	20002f82 <_vsnprintf+0x654>
20002dde:	05800793          	li	a5,88
20002de2:	06f50e63          	beq	a0,a5,20002e5e <_vsnprintf+0x530>
20002de6:	06200793          	li	a5,98
20002dea:	10f51463          	bne	a0,a5,20002ef2 <_vsnprintf+0x5c4>
20002dee:	4609                	li	a2,2
20002df0:	c94a                	sw	s2,144(sp)
20002df2:	8332                	mv	t1,a2
20002df4:	4e81                	li	t4,0
20002df6:	bf51                	j	20002d8a <_vsnprintf+0x45c>
20002df8:	28b69693          	bseti	a3,a3,0xb
20002dfc:	0206e693          	ori	a3,a3,32
20002e00:	bda1                	j	20002c58 <_vsnprintf+0x32a>
20002e02:	4006f793          	andi	a5,a3,1024
20002e06:	41260733          	sub	a4,a2,s2
20002e0a:	8a89                	andi	a3,a3,2
20002e0c:	da0797e3          	bnez	a5,20002bba <_vsnprintf+0x28c>
20002e10:	34068b63          	beqz	a3,20003166 <_vsnprintf+0x838>
20002e14:	4689                	li	a3,2
20002e16:	87a2                	mv	a5,s0
20002e18:	8c36                	mv	s8,a3
20002e1a:	d046                	sw	a7,32(sp)
20002e1c:	d23a                	sw	a4,36(sp)
20002e1e:	8426                	mv	s0,s1
20002e20:	8d3e                	mv	s10,a5
20002e22:	8622                	mv	a2,s0
20002e24:	86d2                	mv	a3,s4
20002e26:	85e6                	mv	a1,s9
20002e28:	9d82                	jalr	s11
20002e2a:	0405                	addi	s0,s0,1
20002e2c:	40940733          	sub	a4,s0,s1
20002e30:	974a                	add	a4,a4,s2
20002e32:	00074503          	lbu	a0,0(a4)
20002e36:	f575                	bnez	a0,20002e22 <_vsnprintf+0x4f4>
20002e38:	5882                	lw	a7,32(sp)
20002e3a:	5712                	lw	a4,36(sp)
20002e3c:	87ea                	mv	a5,s10
20002e3e:	8d22                	mv	s10,s0
20002e40:	86e2                	mv	a3,s8
20002e42:	843e                	mv	s0,a5
20002e44:	84ea                	mv	s1,s10
20002e46:	e6d1                	bnez	a3,20002ed2 <_vsnprintf+0x5a4>
20002e48:	4d72                	lw	s10,28(sp)
20002e4a:	494a                	lw	s2,144(sp)
20002e4c:	5c66                	lw	s8,120(sp)
20002e4e:	be15                	j	20002982 <_vsnprintf+0x54>
20002e50:	00244503          	lbu	a0,2(s0)
20002e54:	0c06e693          	ori	a3,a3,192
20002e58:	00340713          	addi	a4,s0,3
20002e5c:	b6d9                	j	20002a22 <_vsnprintf+0xf4>
20002e5e:	4641                	li	a2,16
20002e60:	c94a                	sw	s2,144(sp)
20002e62:	0206e693          	ori	a3,a3,32
20002e66:	8332                	mv	t1,a2
20002e68:	4e81                	li	t4,0
20002e6a:	b705                	j	20002d8a <_vsnprintf+0x45c>
20002e6c:	5882                	lw	a7,32(sp)
20002e6e:	5712                	lw	a4,36(sp)
20002e70:	5422                	lw	s0,40(sp)
20002e72:	86ea                	mv	a3,s10
20002e74:	84e2                	mv	s1,s8
20002e76:	bfc1                	j	20002e46 <_vsnprintf+0x518>
20002e78:	86ea                	mv	a3,s10
20002e7a:	8d22                	mv	s10,s0
20002e7c:	5882                	lw	a7,32(sp)
20002e7e:	5712                	lw	a4,36(sp)
20002e80:	5422                	lw	s0,40(sp)
20002e82:	84ea                	mv	s1,s10
20002e84:	b7c9                	j	20002e46 <_vsnprintf+0x518>
20002e86:	4785                	li	a5,1
20002e88:	2317fc63          	bgeu	a5,a7,200030c0 <_vsnprintf+0x792>
20002e8c:	87a2                	mv	a5,s0
20002e8e:	fff48913          	addi	s2,s1,-1
20002e92:	dce2                	sw	s8,120(sp)
20002e94:	9946                	add	s2,s2,a7
20002e96:	d046                	sw	a7,32(sp)
20002e98:	8426                	mv	s0,s1
20002e9a:	8c3e                	mv	s8,a5
20002e9c:	8622                	mv	a2,s0
20002e9e:	86d2                	mv	a3,s4
20002ea0:	0405                	addi	s0,s0,1
20002ea2:	85e6                	mv	a1,s9
20002ea4:	02000513          	li	a0,32
20002ea8:	9d82                	jalr	s11
20002eaa:	ff2419e3          	bne	s0,s2,20002e9c <_vsnprintf+0x56e>
20002eae:	5882                	lw	a7,32(sp)
20002eb0:	000d4503          	lbu	a0,0(s10)
20002eb4:	87e2                	mv	a5,s8
20002eb6:	8c22                	mv	s8,s0
20002eb8:	8662                	mv	a2,s8
20002eba:	86d2                	mv	a3,s4
20002ebc:	85e6                	mv	a1,s9
20002ebe:	843e                	mv	s0,a5
20002ec0:	94c6                	add	s1,s1,a7
20002ec2:	9d82                	jalr	s11
20002ec4:	5c66                	lw	s8,120(sp)
20002ec6:	4d72                	lw	s10,28(sp)
20002ec8:	494a                	lw	s2,144(sp)
20002eca:	bc65                	j	20002982 <_vsnprintf+0x54>
20002ecc:	8a89                	andi	a3,a3,2
20002ece:	48068563          	beqz	a3,20003358 <_vsnprintf+0xa2a>
20002ed2:	8c26                	mv	s8,s1
20002ed4:	f7177ae3          	bgeu	a4,a7,20002e48 <_vsnprintf+0x51a>
20002ed8:	98a6                	add	a7,a7,s1
20002eda:	40e884b3          	sub	s1,a7,a4
20002ede:	8662                	mv	a2,s8
20002ee0:	86d2                	mv	a3,s4
20002ee2:	0c05                	addi	s8,s8,1
20002ee4:	85e6                	mv	a1,s9
20002ee6:	02000513          	li	a0,32
20002eea:	9d82                	jalr	s11
20002eec:	fe9c19e3          	bne	s8,s1,20002ede <_vsnprintf+0x5b0>
20002ef0:	bfa1                	j	20002e48 <_vsnprintf+0x51a>
20002ef2:	4006f613          	andi	a2,a3,1024
20002ef6:	fef6fe13          	andi	t3,a3,-17
20002efa:	e655                	bnez	a2,20002fa6 <_vsnprintf+0x678>
20002efc:	200e7513          	andi	a0,t3,512
20002f00:	e945                	bnez	a0,20002fb0 <_vsnprintf+0x682>
20002f02:	c94a                	sw	s2,144(sp)
20002f04:	100e7793          	andi	a5,t3,256
20002f08:	004d0913          	addi	s2,s10,4
20002f0c:	2a079b63          	bnez	a5,200031c2 <_vsnprintf+0x894>
20002f10:	040e7713          	andi	a4,t3,64
20002f14:	16071563          	bnez	a4,2000307e <_vsnprintf+0x750>
20002f18:	080e7713          	andi	a4,t3,128
20002f1c:	40070563          	beqz	a4,20003326 <_vsnprintf+0x9f8>
20002f20:	000d1703          	lh	a4,0(s10)
20002f24:	40f75693          	srai	a3,a4,0xf
20002f28:	00d745b3          	xor	a1,a4,a3
20002f2c:	8d95                	sub	a1,a1,a3
20002f2e:	0805c5b3          	zext.h	a1,a1
20002f32:	01f75693          	srli	a3,a4,0x1f
20002f36:	28070263          	beqz	a4,200031ba <_vsnprintf+0x88c>
20002f3a:	862e                	mv	a2,a1
20002f3c:	ccccdeb7          	lui	t4,0xccccd
20002f40:	ccde8e93          	addi	t4,t4,-819 # cccccccd <__StackTop+0xacc4accd>
20002f44:	0098                	addi	a4,sp,64
20002f46:	4f25                	li	t5,9
20002f48:	02000f93          	li	t6,32
20002f4c:	a019                	j	20002f52 <_vsnprintf+0x624>
20002f4e:	03f78463          	beq	a5,t6,20002f76 <_vsnprintf+0x648>
20002f52:	03d635b3          	mulhu	a1,a2,t4
20002f56:	0785                	addi	a5,a5,1
20002f58:	8332                	mv	t1,a2
20002f5a:	00f702b3          	add	t0,a4,a5
20002f5e:	818d                	srli	a1,a1,0x3
20002f60:	20b5c533          	sh2add	a0,a1,a1
20002f64:	0506                	slli	a0,a0,0x1
20002f66:	8e09                	sub	a2,a2,a0
20002f68:	03060613          	addi	a2,a2,48
20002f6c:	fec28fa3          	sb	a2,-1(t0)
20002f70:	862e                	mv	a2,a1
20002f72:	fc6f6ee3          	bltu	t5,t1,20002f4e <_vsnprintf+0x620>
20002f76:	c246                	sw	a7,4(sp)
20002f78:	c042                	sw	a6,0(sp)
20002f7a:	c472                	sw	t3,8(sp)
20002f7c:	8836                	mv	a6,a3
20002f7e:	8626                	mv	a2,s1
20002f80:	48a9                	li	a7,10
20002f82:	86d2                	mv	a3,s4
20002f84:	85e6                	mv	a1,s9
20002f86:	856e                	mv	a0,s11
20002f88:	c33fe0ef          	jal	20001bba <_ntoa_format>
20002f8c:	8d4a                	mv	s10,s2
20002f8e:	84aa                	mv	s1,a0
20002f90:	494a                	lw	s2,144(sp)
20002f92:	bac5                	j	20002982 <_vsnprintf+0x54>
20002f94:	06900793          	li	a5,105
20002f98:	fef6fe13          	andi	t3,a3,-17
20002f9c:	3af51663          	bne	a0,a5,20003348 <_vsnprintf+0xa1a>
20002fa0:	4006f613          	andi	a2,a3,1024
20002fa4:	de21                	beqz	a2,20002efc <_vsnprintf+0x5ce>
20002fa6:	fee6fe13          	andi	t3,a3,-18
20002faa:	40000613          	li	a2,1024
20002fae:	b7b9                	j	20002efc <_vsnprintf+0x5ce>
20002fb0:	0d1d                	addi	s10,s10,7
20002fb2:	ff8d7d13          	andi	s10,s10,-8
20002fb6:	004d2683          	lw	a3,4(s10)
20002fba:	000d2583          	lw	a1,0(s10)
20002fbe:	0d21                	addi	s10,s10,8
20002fc0:	01f6df13          	srli	t5,a3,0x1f
20002fc4:	00d5e7b3          	or	a5,a1,a3
20002fc8:	c3f9                	beqz	a5,2000308e <_vsnprintf+0x760>
20002fca:	41f6d793          	srai	a5,a3,0x1f
20002fce:	8dbd                	xor	a1,a1,a5
20002fd0:	40f58733          	sub	a4,a1,a5
20002fd4:	8ebd                	xor	a3,a3,a5
20002fd6:	40f687b3          	sub	a5,a3,a5
20002fda:	00e5b6b3          	sltu	a3,a1,a4
20002fde:	c94a                	sw	s2,144(sp)
20002fe0:	dce2                	sw	s8,120(sp)
20002fe2:	40d786b3          	sub	a3,a5,a3
20002fe6:	85ba                	mv	a1,a4
20002fe8:	ccccd537          	lui	a0,0xccccd
20002fec:	8eaa                	mv	t4,a0
20002fee:	ccce8e93          	addi	t4,t4,-820
20002ff2:	ccd50513          	addi	a0,a0,-819 # cccccccd <__StackTop+0xacc4accd>
20002ff6:	4781                	li	a5,0
20002ff8:	0098                	addi	a4,sp,64
20002ffa:	02000f93          	li	t6,32
20002ffe:	8936                	mv	s2,a3
20003000:	01258633          	add	a2,a1,s2
20003004:	00b636b3          	sltu	a3,a2,a1
20003008:	9636                	add	a2,a2,a3
2000300a:	02a636b3          	mulhu	a3,a2,a0
2000300e:	834a                	mv	t1,s2
20003010:	0785                	addi	a5,a5,1
20003012:	00f702b3          	add	t0,a4,a5
20003016:	83ae                	mv	t2,a1
20003018:	0026dc13          	srli	s8,a3,0x2
2000301c:	9af1                	andi	a3,a3,-4
2000301e:	96e2                	add	a3,a3,s8
20003020:	8e15                	sub	a2,a2,a3
20003022:	40c58633          	sub	a2,a1,a2
20003026:	00c5b6b3          	sltu	a3,a1,a2
2000302a:	40d906b3          	sub	a3,s2,a3
2000302e:	03d60c33          	mul	s8,a2,t4
20003032:	02a686b3          	mul	a3,a3,a0
20003036:	02a63933          	mulhu	s2,a2,a0
2000303a:	96e2                	add	a3,a3,s8
2000303c:	02a60633          	mul	a2,a2,a0
20003040:	96ca                	add	a3,a3,s2
20003042:	01f69c13          	slli	s8,a3,0x1f
20003046:	0016d913          	srli	s2,a3,0x1
2000304a:	8205                	srli	a2,a2,0x1
2000304c:	00cc6633          	or	a2,s8,a2
20003050:	20c646b3          	sh2add	a3,a2,a2
20003054:	0686                	slli	a3,a3,0x1
20003056:	40d586b3          	sub	a3,a1,a3
2000305a:	03068693          	addi	a3,a3,48
2000305e:	fed28fa3          	sb	a3,-1(t0)
20003062:	85b2                	mv	a1,a2
20003064:	02030f63          	beqz	t1,200030a2 <_vsnprintf+0x774>
20003068:	f9f79ce3          	bne	a5,t6,20003000 <_vsnprintf+0x6d2>
2000306c:	494a                	lw	s2,144(sp)
2000306e:	5c66                	lw	s8,120(sp)
20003070:	c246                	sw	a7,4(sp)
20003072:	c042                	sw	a6,0(sp)
20003074:	c472                	sw	t3,8(sp)
20003076:	887a                	mv	a6,t5
20003078:	8626                	mv	a2,s1
2000307a:	48a9                	li	a7,10
2000307c:	b4c5                	j	20002b5c <_vsnprintf+0x22e>
2000307e:	000d4703          	lbu	a4,0(s10)
20003082:	85ba                	mv	a1,a4
20003084:	b57d                	j	20002f32 <_vsnprintf+0x604>
20003086:	4641                	li	a2,16
20003088:	8332                	mv	t1,a2
2000308a:	4e81                	li	t4,0
2000308c:	b9fd                	j	20002d8a <_vsnprintf+0x45c>
2000308e:	2a061a63          	bnez	a2,20003342 <_vsnprintf+0xa14>
20003092:	c94a                	sw	s2,144(sp)
20003094:	dce2                	sw	s8,120(sp)
20003096:	4581                	li	a1,0
20003098:	4681                	li	a3,0
2000309a:	b7b9                	j	20002fe8 <_vsnprintf+0x6ba>
2000309c:	000d4603          	lbu	a2,0(s10)
200030a0:	b305                	j	20002dc0 <_vsnprintf+0x492>
200030a2:	46a5                	li	a3,9
200030a4:	fc76e2e3          	bltu	a3,t2,20003068 <_vsnprintf+0x73a>
200030a8:	b7d1                	j	2000306c <_vsnprintf+0x73e>
200030aa:	4006f713          	andi	a4,a3,1024
200030ae:	e0070fe3          	beqz	a4,20002ecc <_vsnprintf+0x59e>
200030b2:	0026f713          	andi	a4,a3,2
200030b6:	28070f63          	beqz	a4,20003354 <_vsnprintf+0xa26>
200030ba:	4701                	li	a4,0
200030bc:	8c26                	mv	s8,s1
200030be:	bd19                	j	20002ed4 <_vsnprintf+0x5a6>
200030c0:	000d4503          	lbu	a0,0(s10)
200030c4:	8626                	mv	a2,s1
200030c6:	86d2                	mv	a3,s4
200030c8:	85e6                	mv	a1,s9
200030ca:	9d82                	jalr	s11
200030cc:	84ca                	mv	s1,s2
200030ce:	b10d                	j	20002cf0 <_vsnprintf+0x3c2>
200030d0:	0d1d                	addi	s10,s10,7
200030d2:	ff8d7d13          	andi	s10,s10,-8
200030d6:	000d2f03          	lw	t5,0(s10)
200030da:	004d2903          	lw	s2,4(s10)
200030de:	dce2                	sw	s8,120(sp)
200030e0:	0d21                	addi	s10,s10,8
200030e2:	012f67b3          	or	a5,t5,s2
200030e6:	12079e63          	bnez	a5,20003222 <_vsnprintf+0x8f4>
200030ea:	fefe7e13          	andi	t3,t3,-17
200030ee:	12050a63          	beqz	a0,20003222 <_vsnprintf+0x8f4>
200030f2:	4c01                	li	s8,0
200030f4:	0098                	addi	a4,sp,64
200030f6:	c246                	sw	a7,4(sp)
200030f8:	c042                	sw	a6,0(sp)
200030fa:	87e2                	mv	a5,s8
200030fc:	8626                	mv	a2,s1
200030fe:	c472                	sw	t3,8(sp)
20003100:	889a                	mv	a7,t1
20003102:	4801                	li	a6,0
20003104:	86d2                	mv	a3,s4
20003106:	85e6                	mv	a1,s9
20003108:	856e                	mv	a0,s11
2000310a:	ab1fe0ef          	jal	20001bba <_ntoa_format>
2000310e:	84aa                	mv	s1,a0
20003110:	494a                	lw	s2,144(sp)
20003112:	5c66                	lw	s8,120(sp)
20003114:	b0bd                	j	20002982 <_vsnprintf+0x54>
20003116:	485e5693          	bexti	a3,t3,0x5
2000311a:	06100713          	li	a4,97
2000311e:	c299                	beqz	a3,20003124 <_vsnprintf+0x7f6>
20003120:	04100713          	li	a4,65
20003124:	ff670f13          	addi	t5,a4,-10
20003128:	4525                	li	a0,9
2000312a:	0098                	addi	a4,sp,64
2000312c:	02000e93          	li	t4,32
20003130:	a00d                	j	20003152 <_vsnprintf+0x824>
20003132:	03068693          	addi	a3,a3,48
20003136:	0ff6f693          	zext.b	a3,a3
2000313a:	0785                	addi	a5,a5,1
2000313c:	00f705b3          	add	a1,a4,a5
20003140:	fed58fa3          	sb	a3,-1(a1)
20003144:	026656b3          	divu	a3,a2,t1
20003148:	c86664e3          	bltu	a2,t1,20002dd0 <_vsnprintf+0x4a2>
2000314c:	c9d782e3          	beq	a5,t4,20002dd0 <_vsnprintf+0x4a2>
20003150:	8636                	mv	a2,a3
20003152:	026675b3          	remu	a1,a2,t1
20003156:	0ff5f693          	zext.b	a3,a1
2000315a:	fcb57ce3          	bgeu	a0,a1,20003132 <_vsnprintf+0x804>
2000315e:	96fa                	add	a3,a3,t5
20003160:	0ff6f693          	zext.b	a3,a3
20003164:	bfd9                	j	2000313a <_vsnprintf+0x80c>
20003166:	1f177e63          	bgeu	a4,a7,20003362 <_vsnprintf+0xa34>
2000316a:	00988d33          	add	s10,a7,s1
2000316e:	87a2                	mv	a5,s0
20003170:	40ed0d33          	sub	s10,s10,a4
20003174:	8426                	mv	s0,s1
20003176:	8c36                	mv	s8,a3
20003178:	d046                	sw	a7,32(sp)
2000317a:	d242                	sw	a6,36(sp)
2000317c:	84be                	mv	s1,a5
2000317e:	8622                	mv	a2,s0
20003180:	86d2                	mv	a3,s4
20003182:	0405                	addi	s0,s0,1
20003184:	85e6                	mv	a1,s9
20003186:	02000513          	li	a0,32
2000318a:	9d82                	jalr	s11
2000318c:	ffa419e3          	bne	s0,s10,2000317e <_vsnprintf+0x850>
20003190:	5882                	lw	a7,32(sp)
20003192:	00094503          	lbu	a0,0(s2)
20003196:	87a6                	mv	a5,s1
20003198:	5812                	lw	a6,36(sp)
2000319a:	84a2                	mv	s1,s0
2000319c:	86e2                	mv	a3,s8
2000319e:	843e                	mv	s0,a5
200031a0:	00188713          	addi	a4,a7,1
200031a4:	ca0502e3          	beqz	a0,20002e48 <_vsnprintf+0x51a>
200031a8:	c60c07e3          	beqz	s8,20002e16 <_vsnprintf+0x4e8>
200031ac:	4681                	li	a3,0
200031ae:	bc19                	j	20002bc4 <_vsnprintf+0x296>
200031b0:	1b177763          	bgeu	a4,a7,2000335e <_vsnprintf+0xa30>
200031b4:	40000693          	li	a3,1024
200031b8:	bf4d                	j	2000316a <_vsnprintf+0x83c>
200031ba:	0098                	addi	a4,sp,64
200031bc:	da061de3          	bnez	a2,20002f76 <_vsnprintf+0x648>
200031c0:	bbb5                	j	20002f3c <_vsnprintf+0x60e>
200031c2:	000d2783          	lw	a5,0(s10)
200031c6:	01f7d693          	srli	a3,a5,0x1f
200031ca:	16078563          	beqz	a5,20003334 <_vsnprintf+0xa06>
200031ce:	40f00633          	neg	a2,a5
200031d2:	0ac7e633          	max	a2,a5,a2
200031d6:	ccccdeb7          	lui	t4,0xccccd
200031da:	ccde8e93          	addi	t4,t4,-819 # cccccccd <__StackTop+0xacc4accd>
200031de:	0098                	addi	a4,sp,64
200031e0:	4f25                	li	t5,9
200031e2:	02000f93          	li	t6,32
200031e6:	a019                	j	200031ec <_vsnprintf+0x8be>
200031e8:	03f50563          	beq	a0,t6,20003212 <_vsnprintf+0x8e4>
200031ec:	03d635b3          	mulhu	a1,a2,t4
200031f0:	0505                	addi	a0,a0,1
200031f2:	00a702b3          	add	t0,a4,a0
200031f6:	8332                	mv	t1,a2
200031f8:	818d                	srli	a1,a1,0x3
200031fa:	20b5c7b3          	sh2add	a5,a1,a1
200031fe:	0786                	slli	a5,a5,0x1
20003200:	40f607b3          	sub	a5,a2,a5
20003204:	03078793          	addi	a5,a5,48
20003208:	fef28fa3          	sb	a5,-1(t0)
2000320c:	862e                	mv	a2,a1
2000320e:	fc6f6de3          	bltu	t5,t1,200031e8 <_vsnprintf+0x8ba>
20003212:	c246                	sw	a7,4(sp)
20003214:	c042                	sw	a6,0(sp)
20003216:	c472                	sw	t3,8(sp)
20003218:	8836                	mv	a6,a3
2000321a:	87aa                	mv	a5,a0
2000321c:	8626                	mv	a2,s1
2000321e:	48a9                	li	a7,10
20003220:	b38d                	j	20002f82 <_vsnprintf+0x654>
20003222:	485e5713          	bexti	a4,t3,0x5
20003226:	06100793          	li	a5,97
2000322a:	c319                	beqz	a4,20003230 <_vsnprintf+0x902>
2000322c:	04100793          	li	a5,65
20003230:	17d9                	addi	a5,a5,-10
20003232:	0098                	addi	a4,sp,64
20003234:	d426                	sw	s1,40(sp)
20003236:	d86e                	sw	s11,48(sp)
20003238:	da66                	sw	s9,52(sp)
2000323a:	dc52                	sw	s4,56(sp)
2000323c:	de22                	sw	s0,60(sp)
2000323e:	4c01                	li	s8,0
20003240:	ce72                	sw	t3,28(sp)
20003242:	d046                	sw	a7,32(sp)
20003244:	d242                	sw	a6,36(sp)
20003246:	d61a                	sw	t1,44(sp)
20003248:	84fa                	mv	s1,t5
2000324a:	8a32                	mv	s4,a2
2000324c:	8cf6                	mv	s9,t4
2000324e:	8dba                	mv	s11,a4
20003250:	843e                	mv	s0,a5
20003252:	a805                	j	20003282 <_vsnprintf+0x954>
20003254:	03050793          	addi	a5,a0,48
20003258:	0ff7f793          	zext.b	a5,a5
2000325c:	0c05                	addi	s8,s8,1
2000325e:	018d86b3          	add	a3,s11,s8
20003262:	fef68fa3          	sb	a5,-1(a3)
20003266:	8652                	mv	a2,s4
20003268:	4681                	li	a3,0
2000326a:	8526                	mv	a0,s1
2000326c:	85ca                	mv	a1,s2
2000326e:	5b5000ef          	jal	20004022 <__udivdi3>
20003272:	092c8d63          	beq	s9,s2,2000330c <_vsnprintf+0x9de>
20003276:	02000793          	li	a5,32
2000327a:	08fc0b63          	beq	s8,a5,20003310 <_vsnprintf+0x9e2>
2000327e:	84aa                	mv	s1,a0
20003280:	892e                	mv	s2,a1
20003282:	8652                	mv	a2,s4
20003284:	4681                	li	a3,0
20003286:	8526                	mv	a0,s1
20003288:	85ca                	mv	a1,s2
2000328a:	120010ef          	jal	200043aa <__umoddi3>
2000328e:	0ff57513          	zext.b	a0,a0
20003292:	47a5                	li	a5,9
20003294:	fca7f0e3          	bgeu	a5,a0,20003254 <_vsnprintf+0x926>
20003298:	008507b3          	add	a5,a0,s0
2000329c:	0ff7f793          	zext.b	a5,a5
200032a0:	bf75                	j	2000325c <_vsnprintf+0x92e>
200032a2:	000d2783          	lw	a5,0(s10)
200032a6:	e789                	bnez	a5,200032b0 <_vsnprintf+0x982>
200032a8:	fefe7e13          	andi	t3,t3,-17
200032ac:	0098                	addi	a4,sp,64
200032ae:	e929                	bnez	a0,20003300 <_vsnprintf+0x9d2>
200032b0:	485e5693          	bexti	a3,t3,0x5
200032b4:	06100713          	li	a4,97
200032b8:	c299                	beqz	a3,200032be <_vsnprintf+0x990>
200032ba:	04100713          	li	a4,65
200032be:	ff670f13          	addi	t5,a4,-10
200032c2:	4ea5                	li	t4,9
200032c4:	0098                	addi	a4,sp,64
200032c6:	02000513          	li	a0,32
200032ca:	a00d                	j	200032ec <_vsnprintf+0x9be>
200032cc:	03068693          	addi	a3,a3,48
200032d0:	0ff6f693          	zext.b	a3,a3
200032d4:	0585                	addi	a1,a1,1
200032d6:	00b70633          	add	a2,a4,a1
200032da:	fed60fa3          	sb	a3,-1(a2)
200032de:	0267d6b3          	divu	a3,a5,t1
200032e2:	0067ef63          	bltu	a5,t1,20003300 <_vsnprintf+0x9d2>
200032e6:	00a58d63          	beq	a1,a0,20003300 <_vsnprintf+0x9d2>
200032ea:	87b6                	mv	a5,a3
200032ec:	0267f633          	remu	a2,a5,t1
200032f0:	0ff67693          	zext.b	a3,a2
200032f4:	fccefce3          	bgeu	t4,a2,200032cc <_vsnprintf+0x99e>
200032f8:	96fa                	add	a3,a3,t5
200032fa:	0ff6f693          	zext.b	a3,a3
200032fe:	bfd9                	j	200032d4 <_vsnprintf+0x9a6>
20003300:	c246                	sw	a7,4(sp)
20003302:	c472                	sw	t3,8(sp)
20003304:	c042                	sw	a6,0(sp)
20003306:	889a                	mv	a7,t1
20003308:	87ae                	mv	a5,a1
2000330a:	b4f9                	j	20002dd8 <_vsnprintf+0x4aa>
2000330c:	f744f5e3          	bgeu	s1,s4,20003276 <_vsnprintf+0x948>
20003310:	876e                	mv	a4,s11
20003312:	4e72                	lw	t3,28(sp)
20003314:	5882                	lw	a7,32(sp)
20003316:	5812                	lw	a6,36(sp)
20003318:	54a2                	lw	s1,40(sp)
2000331a:	5332                	lw	t1,44(sp)
2000331c:	5cd2                	lw	s9,52(sp)
2000331e:	5a62                	lw	s4,56(sp)
20003320:	5472                	lw	s0,60(sp)
20003322:	5dc2                	lw	s11,48(sp)
20003324:	bbc9                	j	200030f6 <_vsnprintf+0x7c8>
20003326:	000d2703          	lw	a4,0(s10)
2000332a:	40e005b3          	neg	a1,a4
2000332e:	0ab765b3          	max	a1,a4,a1
20003332:	b101                	j	20002f32 <_vsnprintf+0x604>
20003334:	0098                	addi	a4,sp,64
20003336:	ec061ee3          	bnez	a2,20003212 <_vsnprintf+0x8e4>
2000333a:	bd71                	j	200031d6 <_vsnprintf+0x8a8>
2000333c:	000d2603          	lw	a2,0(s10)
20003340:	b441                	j	20002dc0 <_vsnprintf+0x492>
20003342:	4781                	li	a5,0
20003344:	0098                	addi	a4,sp,64
20003346:	b32d                	j	20003070 <_vsnprintf+0x742>
20003348:	4629                	li	a2,10
2000334a:	c94a                	sw	s2,144(sp)
2000334c:	86f2                	mv	a3,t3
2000334e:	8332                	mv	t1,a2
20003350:	4e81                	li	t4,0
20003352:	bc25                	j	20002d8a <_vsnprintf+0x45c>
20003354:	40000693          	li	a3,1024
20003358:	e00899e3          	bnez	a7,2000316a <_vsnprintf+0x83c>
2000335c:	b4f5                	j	20002e48 <_vsnprintf+0x51a>
2000335e:	0705                	addi	a4,a4,1
20003360:	b095                	j	20002bc4 <_vsnprintf+0x296>
20003362:	0705                	addi	a4,a4,1
20003364:	bc4d                	j	20002e16 <_vsnprintf+0x4e8>

20003366 <vfctprintf>:
20003366:	1101                	addi	sp,sp,-32
20003368:	200028b7          	lui	a7,0x20002
2000336c:	882a                	mv	a6,a0
2000336e:	87ae                	mv	a5,a1
20003370:	8736                	mv	a4,a3
20003372:	002c                	addi	a1,sp,8
20003374:	86b2                	mv	a3,a2
20003376:	de088513          	addi	a0,a7,-544 # 20001de0 <_out_fct>
2000337a:	567d                	li	a2,-1
2000337c:	ce06                	sw	ra,28(sp)
2000337e:	c442                	sw	a6,8(sp)
20003380:	c63e                	sw	a5,12(sp)
20003382:	dacff0ef          	jal	2000292e <_vsnprintf>
20003386:	40f2                	lw	ra,28(sp)
20003388:	6105                	addi	sp,sp,32
2000338a:	8082                	ret

2000338c <weak_raw_vprintf>:
2000338c:	8101a783          	lw	a5,-2032(gp) # 20007114 <lazy_vsnprintf>
20003390:	1101                	addi	sp,sp,-32
20003392:	ce06                	sw	ra,28(sp)
20003394:	cf91                	beqz	a5,200033b0 <weak_raw_vprintf+0x24>
20003396:	86aa                	mv	a3,a0
20003398:	20002537          	lui	a0,0x20002
2000339c:	872e                	mv	a4,a1
2000339e:	dd850513          	addi	a0,a0,-552 # 20001dd8 <_out_char>
200033a2:	006c                	addi	a1,sp,12
200033a4:	567d                	li	a2,-1
200033a6:	9782                	jalr	a5
200033a8:	40f2                	lw	ra,28(sp)
200033aa:	4505                	li	a0,1
200033ac:	6105                	addi	sp,sp,32
200033ae:	8082                	ret
200033b0:	2e61                	jal	20003748 <__wrap_puts>
200033b2:	40f2                	lw	ra,28(sp)
200033b4:	4501                	li	a0,0
200033b6:	6105                	addi	sp,sp,32
200033b8:	8082                	ret

200033ba <runtime_init_per_core_h3_irq_registers>:
200033ba:	450d                	li	a0,3
200033bc:	be251073          	csrw	0xbe2,a0
200033c0:	157d                	addi	a0,a0,-1
200033c2:	fe055de3          	bgez	a0,200033bc <runtime_init_per_core_h3_irq_registers+0x2>
200033c6:	6505                	lui	a0,0x1
200033c8:	80050513          	addi	a0,a0,-2048 # 800 <HeapSize>
200033cc:	30451073          	csrw	mie,a0
200033d0:	30046073          	csrsi	mstatus,8
200033d4:	34001073          	csrw	mscratch,zero
200033d8:	8082                	ret

200033da <_exit>:
200033da:	9002                	ebreak
200033dc:	bffd                	j	200033da <_exit>

200033de <exit>:
200033de:	1141                	addi	sp,sp,-16
200033e0:	c606                	sw	ra,12(sp)
200033e2:	3fe5                	jal	200033da <_exit>

200033e4 <runtime_init>:
200033e4:	1141                	addi	sp,sp,-16
200033e6:	c422                	sw	s0,8(sp)
200033e8:	c226                	sw	s1,4(sp)
200033ea:	c606                	sw	ra,12(sp)
200033ec:	20007437          	lui	s0,0x20007
200033f0:	d76fe0ef          	jal	20001966 <runtime_run_initializers>
200033f4:	200074b7          	lui	s1,0x20007
200033f8:	f1040793          	addi	a5,s0,-240 # 20006f10 <default_alarm_pool_entries>
200033fc:	f1048493          	addi	s1,s1,-240 # 20006f10 <default_alarm_pool_entries>
20003400:	0097f963          	bgeu	a5,s1,20003412 <runtime_init+0x2e>
20003404:	f1040413          	addi	s0,s0,-240
20003408:	401c                	lw	a5,0(s0)
2000340a:	0411                	addi	s0,s0,4
2000340c:	9782                	jalr	a5
2000340e:	fe946de3          	bltu	s0,s1,20003408 <runtime_init+0x24>
20003412:	40b2                	lw	ra,12(sp)
20003414:	4422                	lw	s0,8(sp)
20003416:	4492                	lw	s1,4(sp)
20003418:	0141                	addi	sp,sp,16
2000341a:	8082                	ret

2000341c <stdio_out_chars_no_crlf>:
2000341c:	411c                	lw	a5,0(a0)
2000341e:	852e                	mv	a0,a1
20003420:	85b2                	mv	a1,a2
20003422:	8782                	jr	a5

20003424 <stdio_out_chars_crlf>:
20003424:	01554783          	lbu	a5,21(a0)
20003428:	1101                	addi	sp,sp,-32
2000342a:	ca26                	sw	s1,20(sp)
2000342c:	c64e                	sw	s3,12(sp)
2000342e:	c452                	sw	s4,8(sp)
20003430:	ce06                	sw	ra,28(sp)
20003432:	89aa                	mv	s3,a0
20003434:	8a2e                	mv	s4,a1
20003436:	84b2                	mv	s1,a2
20003438:	c7e9                	beqz	a5,20003502 <stdio_out_chars_crlf+0xde>
2000343a:	04c05863          	blez	a2,2000348a <stdio_out_chars_crlf+0x66>
2000343e:	0005c703          	lbu	a4,0(a1)
20003442:	47a9                	li	a5,10
20003444:	06f70963          	beq	a4,a5,200034b6 <stdio_out_chars_crlf+0x92>
20003448:	4705                	li	a4,1
2000344a:	4781                	li	a5,0
2000344c:	04e48563          	beq	s1,a4,20003496 <stdio_out_chars_crlf+0x72>
20003450:	cc22                	sw	s0,24(sp)
20003452:	c84a                	sw	s2,16(sp)
20003454:	c256                	sw	s5,4(sp)
20003456:	001a0913          	addi	s2,s4,1
2000345a:	4405                	li	s0,1
2000345c:	4aa9                	li	s5,10
2000345e:	00094703          	lbu	a4,0(s2)
20003462:	86a2                	mv	a3,s0
20003464:	0405                	addi	s0,s0,1
20003466:	07570663          	beq	a4,s5,200034d2 <stdio_out_chars_crlf+0xae>
2000346a:	0905                	addi	s2,s2,1
2000346c:	fe8499e3          	bne	s1,s0,2000345e <stdio_out_chars_crlf+0x3a>
20003470:	4462                	lw	s0,24(sp)
20003472:	4942                	lw	s2,16(sp)
20003474:	4a92                	lw	s5,4(sp)
20003476:	0297c063          	blt	a5,s1,20003496 <stdio_out_chars_crlf+0x72>
2000347a:	9a26                	add	s4,s4,s1
2000347c:	fffa4783          	lbu	a5,-1(s4)
20003480:	17cd                	addi	a5,a5,-13
20003482:	0017b793          	seqz	a5,a5
20003486:	00f98a23          	sb	a5,20(s3)
2000348a:	40f2                	lw	ra,28(sp)
2000348c:	44d2                	lw	s1,20(sp)
2000348e:	49b2                	lw	s3,12(sp)
20003490:	4a22                	lw	s4,8(sp)
20003492:	6105                	addi	sp,sp,32
20003494:	8082                	ret
20003496:	0009a703          	lw	a4,0(s3)
2000349a:	00fa0533          	add	a0,s4,a5
2000349e:	40f485b3          	sub	a1,s1,a5
200034a2:	9702                	jalr	a4
200034a4:	9a26                	add	s4,s4,s1
200034a6:	fffa4783          	lbu	a5,-1(s4)
200034aa:	17cd                	addi	a5,a5,-13
200034ac:	0017b793          	seqz	a5,a5
200034b0:	00f98a23          	sb	a5,20(s3)
200034b4:	bfd9                	j	2000348a <stdio_out_chars_crlf+0x66>
200034b6:	01454783          	lbu	a5,20(a0)
200034ba:	f7d9                	bnez	a5,20003448 <stdio_out_chars_crlf+0x24>
200034bc:	411c                	lw	a5,0(a0)
200034be:	20007537          	lui	a0,0x20007
200034c2:	e3050513          	addi	a0,a0,-464 # 20006e30 <crlf_str.0>
200034c6:	4589                	li	a1,2
200034c8:	9782                	jalr	a5
200034ca:	4785                	li	a5,1
200034cc:	f8f492e3          	bne	s1,a5,20003450 <stdio_out_chars_crlf+0x2c>
200034d0:	b76d                	j	2000347a <stdio_out_chars_crlf+0x56>
200034d2:	fff94603          	lbu	a2,-1(s2)
200034d6:	4735                	li	a4,13
200034d8:	f8e609e3          	beq	a2,a4,2000346a <stdio_out_chars_crlf+0x46>
200034dc:	40f685b3          	sub	a1,a3,a5
200034e0:	00fa0533          	add	a0,s4,a5
200034e4:	00d7d563          	bge	a5,a3,200034ee <stdio_out_chars_crlf+0xca>
200034e8:	0009a783          	lw	a5,0(s3)
200034ec:	9782                	jalr	a5
200034ee:	0009a783          	lw	a5,0(s3)
200034f2:	20007537          	lui	a0,0x20007
200034f6:	e3050513          	addi	a0,a0,-464 # 20006e30 <crlf_str.0>
200034fa:	4589                	li	a1,2
200034fc:	9782                	jalr	a5
200034fe:	87a2                	mv	a5,s0
20003500:	b7ad                	j	2000346a <stdio_out_chars_crlf+0x46>
20003502:	411c                	lw	a5,0(a0)
20003504:	40f2                	lw	ra,28(sp)
20003506:	44d2                	lw	s1,20(sp)
20003508:	49b2                	lw	s3,12(sp)
2000350a:	8552                	mv	a0,s4
2000350c:	4a22                	lw	s4,8(sp)
2000350e:	85b2                	mv	a1,a2
20003510:	6105                	addi	sp,sp,32
20003512:	8782                	jr	a5

20003514 <stdio_buffered_printer>:
20003514:	419c                	lw	a5,0(a1)
20003516:	1101                	addi	sp,sp,-32
20003518:	ca26                	sw	s1,20(sp)
2000351a:	c84a                	sw	s2,16(sp)
2000351c:	ce06                	sw	ra,28(sp)
2000351e:	08000713          	li	a4,128
20003522:	84ae                	mv	s1,a1
20003524:	892a                	mv	s2,a0
20003526:	00e78d63          	beq	a5,a4,20003540 <stdio_buffered_printer+0x2c>
2000352a:	00178713          	addi	a4,a5,1
2000352e:	c098                	sw	a4,0(s1)
20003530:	94be                	add	s1,s1,a5
20003532:	01248223          	sb	s2,4(s1)
20003536:	40f2                	lw	ra,28(sp)
20003538:	44d2                	lw	s1,20(sp)
2000353a:	4942                	lw	s2,16(sp)
2000353c:	6105                	addi	sp,sp,32
2000353e:	8082                	ret
20003540:	cc22                	sw	s0,24(sp)
20003542:	8181a403          	lw	s0,-2024(gp) # 2000711c <drivers>
20003546:	c64e                	sw	s3,12(sp)
20003548:	c452                	sw	s4,8(sp)
2000354a:	00458993          	addi	s3,a1,4
2000354e:	e01d                	bnez	s0,20003574 <stdio_buffered_printer+0x60>
20003550:	4705                	li	a4,1
20003552:	4781                	li	a5,0
20003554:	4462                	lw	s0,24(sp)
20003556:	49b2                	lw	s3,12(sp)
20003558:	4a22                	lw	s4,8(sp)
2000355a:	c098                	sw	a4,0(s1)
2000355c:	94be                	add	s1,s1,a5
2000355e:	01248223          	sb	s2,4(s1)
20003562:	40f2                	lw	ra,28(sp)
20003564:	44d2                	lw	s1,20(sp)
20003566:	4942                	lw	s2,16(sp)
20003568:	6105                	addi	sp,sp,32
2000356a:	8082                	ret
2000356c:	4090                	lw	a2,0(s1)
2000356e:	3d5d                	jal	20003424 <stdio_out_chars_crlf>
20003570:	4800                	lw	s0,16(s0)
20003572:	dc79                	beqz	s0,20003550 <stdio_buffered_printer+0x3c>
20003574:	401c                	lw	a5,0(s0)
20003576:	85ce                	mv	a1,s3
20003578:	8522                	mv	a0,s0
2000357a:	dbfd                	beqz	a5,20003570 <stdio_buffered_printer+0x5c>
2000357c:	8141a783          	lw	a5,-2028(gp) # 20007118 <filter>
20003580:	d7f5                	beqz	a5,2000356c <stdio_buffered_printer+0x58>
20003582:	fe8797e3          	bne	a5,s0,20003570 <stdio_buffered_printer+0x5c>
20003586:	4090                	lw	a2,0(s1)
20003588:	3d71                	jal	20003424 <stdio_out_chars_crlf>
2000358a:	b7dd                	j	20003570 <stdio_buffered_printer+0x5c>

2000358c <stdio_put_string>:
2000358c:	7139                	addi	sp,sp,-64
2000358e:	dc22                	sw	s0,56(sp)
20003590:	da26                	sw	s1,52(sp)
20003592:	d84a                	sw	s2,48(sp)
20003594:	d64e                	sw	s3,44(sp)
20003596:	de06                	sw	ra,60(sp)
20003598:	89b2                	mv	s3,a2
2000359a:	d452                	sw	s4,40(sp)
2000359c:	d256                	sw	s5,36(sp)
2000359e:	d05a                	sw	s6,32(sp)
200035a0:	892a                	mv	s2,a0
200035a2:	84ae                	mv	s1,a1
200035a4:	8436                	mv	s0,a3
200035a6:	820fe0ef          	jal	200015c6 <time_us_64>
200035aa:	000f47b7          	lui	a5,0xf4
200035ae:	24078793          	addi	a5,a5,576 # f4240 <HeapSize+0xf3a40>
200035b2:	97aa                	add	a5,a5,a0
200035b4:	00a7b533          	sltu	a0,a5,a0
200035b8:	80000737          	lui	a4,0x80000
200035bc:	00b50633          	add	a2,a0,a1
200035c0:	177d                	addi	a4,a4,-1 # 7fffffff <__StackTop+0x5ff7dfff>
200035c2:	85be                	mv	a1,a5
200035c4:	00c77463          	bgeu	a4,a2,200035cc <stdio_put_string+0x40>
200035c8:	863a                	mv	a2,a4
200035ca:	55fd                	li	a1,-1
200035cc:	20007ab7          	lui	s5,0x20007
200035d0:	ed4a8513          	addi	a0,s5,-300 # 20006ed4 <print_mutex>
200035d4:	d65fc0ef          	jal	20000338 <mutex_try_enter_block_until>
200035d8:	57fd                	li	a5,-1
200035da:	8b2a                	mv	s6,a0
200035dc:	08f48f63          	beq	s1,a5,2000367a <stdio_put_string+0xee>
200035e0:	c439                	beqz	s0,2000362e <stdio_put_string+0xa2>
200035e2:	20003a37          	lui	s4,0x20003
200035e6:	424a0a13          	addi	s4,s4,1060 # 20003424 <stdio_out_chars_crlf>
200035ea:	8181a403          	lw	s0,-2024(gp) # 2000711c <drivers>
200035ee:	c01d                	beqz	s0,20003614 <stdio_put_string+0x88>
200035f0:	04099463          	bnez	s3,20003638 <stdio_put_string+0xac>
200035f4:	a019                	j	200035fa <stdio_put_string+0x6e>
200035f6:	4800                	lw	s0,16(s0)
200035f8:	cc11                	beqz	s0,20003614 <stdio_put_string+0x88>
200035fa:	401c                	lw	a5,0(s0)
200035fc:	8626                	mv	a2,s1
200035fe:	85ca                	mv	a1,s2
20003600:	8522                	mv	a0,s0
20003602:	dbf5                	beqz	a5,200035f6 <stdio_put_string+0x6a>
20003604:	8141a783          	lw	a5,-2028(gp) # 20007118 <filter>
20003608:	c399                	beqz	a5,2000360e <stdio_put_string+0x82>
2000360a:	fef416e3          	bne	s0,a5,200035f6 <stdio_put_string+0x6a>
2000360e:	9a02                	jalr	s4
20003610:	4800                	lw	s0,16(s0)
20003612:	f465                	bnez	s0,200035fa <stdio_put_string+0x6e>
20003614:	040b1e63          	bnez	s6,20003670 <stdio_put_string+0xe4>
20003618:	50f2                	lw	ra,60(sp)
2000361a:	5462                	lw	s0,56(sp)
2000361c:	5942                	lw	s2,48(sp)
2000361e:	59b2                	lw	s3,44(sp)
20003620:	5a22                	lw	s4,40(sp)
20003622:	5a92                	lw	s5,36(sp)
20003624:	5b02                	lw	s6,32(sp)
20003626:	8526                	mv	a0,s1
20003628:	54d2                	lw	s1,52(sp)
2000362a:	6121                	addi	sp,sp,64
2000362c:	8082                	ret
2000362e:	20003a37          	lui	s4,0x20003
20003632:	41ca0a13          	addi	s4,s4,1052 # 2000341c <stdio_out_chars_no_crlf>
20003636:	bf55                	j	200035ea <stdio_put_string+0x5e>
20003638:	ce5e                	sw	s7,28(sp)
2000363a:	4ba9                	li	s7,10
2000363c:	a019                	j	20003642 <stdio_put_string+0xb6>
2000363e:	4800                	lw	s0,16(s0)
20003640:	c40d                	beqz	s0,2000366a <stdio_put_string+0xde>
20003642:	401c                	lw	a5,0(s0)
20003644:	8626                	mv	a2,s1
20003646:	85ca                	mv	a1,s2
20003648:	8522                	mv	a0,s0
2000364a:	dbf5                	beqz	a5,2000363e <stdio_put_string+0xb2>
2000364c:	8141a783          	lw	a5,-2028(gp) # 20007118 <filter>
20003650:	c399                	beqz	a5,20003656 <stdio_put_string+0xca>
20003652:	fe8796e3          	bne	a5,s0,2000363e <stdio_put_string+0xb2>
20003656:	9a02                	jalr	s4
20003658:	8522                	mv	a0,s0
2000365a:	00f10593          	addi	a1,sp,15
2000365e:	4605                	li	a2,1
20003660:	017107a3          	sb	s7,15(sp)
20003664:	9a02                	jalr	s4
20003666:	4800                	lw	s0,16(s0)
20003668:	fc69                	bnez	s0,20003642 <stdio_put_string+0xb6>
2000366a:	4bf2                	lw	s7,28(sp)
2000366c:	fa0b06e3          	beqz	s6,20003618 <stdio_put_string+0x8c>
20003670:	ed4a8513          	addi	a0,s5,-300
20003674:	d2ffc0ef          	jal	200003a2 <mutex_exit>
20003678:	b745                	j	20003618 <stdio_put_string+0x8c>
2000367a:	854a                	mv	a0,s2
2000367c:	116030ef          	jal	20006792 <strlen>
20003680:	84aa                	mv	s1,a0
20003682:	bfb9                	j	200035e0 <stdio_put_string+0x54>

20003684 <stdio_set_driver_enabled>:
20003684:	8181a783          	lw	a5,-2024(gp) # 2000711c <drivers>
20003688:	81818713          	addi	a4,gp,-2024 # 2000711c <drivers>
2000368c:	c799                	beqz	a5,2000369a <stdio_set_driver_enabled+0x16>
2000368e:	00a78963          	beq	a5,a0,200036a0 <stdio_set_driver_enabled+0x1c>
20003692:	01078713          	addi	a4,a5,16
20003696:	4b9c                	lw	a5,16(a5)
20003698:	fbfd                	bnez	a5,2000368e <stdio_set_driver_enabled+0xa>
2000369a:	c191                	beqz	a1,2000369e <stdio_set_driver_enabled+0x1a>
2000369c:	c308                	sw	a0,0(a4)
2000369e:	8082                	ret
200036a0:	fdfd                	bnez	a1,2000369e <stdio_set_driver_enabled+0x1a>
200036a2:	4b94                	lw	a3,16(a5)
200036a4:	c314                	sw	a3,0(a4)
200036a6:	0007a823          	sw	zero,16(a5)
200036aa:	8082                	ret

200036ac <__wrap_putchar>:
200036ac:	7179                	addi	sp,sp,-48
200036ae:	d226                	sw	s1,36(sp)
200036b0:	d606                	sw	ra,44(sp)
200036b2:	d422                	sw	s0,40(sp)
200036b4:	ce4e                	sw	s3,28(sp)
200036b6:	cc52                	sw	s4,24(sp)
200036b8:	84aa                	mv	s1,a0
200036ba:	00a107a3          	sb	a0,15(sp)
200036be:	f09fd0ef          	jal	200015c6 <time_us_64>
200036c2:	000f47b7          	lui	a5,0xf4
200036c6:	24078793          	addi	a5,a5,576 # f4240 <HeapSize+0xf3a40>
200036ca:	97aa                	add	a5,a5,a0
200036cc:	00a7b633          	sltu	a2,a5,a0
200036d0:	80000737          	lui	a4,0x80000
200036d4:	962e                	add	a2,a2,a1
200036d6:	177d                	addi	a4,a4,-1 # 7fffffff <__StackTop+0x5ff7dfff>
200036d8:	85be                	mv	a1,a5
200036da:	00c77463          	bgeu	a4,a2,200036e2 <__wrap_putchar+0x36>
200036de:	863a                	mv	a2,a4
200036e0:	55fd                	li	a1,-1
200036e2:	20007a37          	lui	s4,0x20007
200036e6:	ed4a0513          	addi	a0,s4,-300 # 20006ed4 <print_mutex>
200036ea:	c4ffc0ef          	jal	20000338 <mutex_try_enter_block_until>
200036ee:	8181a403          	lw	s0,-2024(gp) # 2000711c <drivers>
200036f2:	89aa                	mv	s3,a0
200036f4:	c405                	beqz	s0,2000371c <__wrap_putchar+0x70>
200036f6:	d04a                	sw	s2,32(sp)
200036f8:	a019                	j	200036fe <__wrap_putchar+0x52>
200036fa:	4800                	lw	s0,16(s0)
200036fc:	cc19                	beqz	s0,2000371a <__wrap_putchar+0x6e>
200036fe:	401c                	lw	a5,0(s0)
20003700:	4605                	li	a2,1
20003702:	00f10593          	addi	a1,sp,15
20003706:	8522                	mv	a0,s0
20003708:	dbed                	beqz	a5,200036fa <__wrap_putchar+0x4e>
2000370a:	8141a783          	lw	a5,-2028(gp) # 20007118 <filter>
2000370e:	c399                	beqz	a5,20003714 <__wrap_putchar+0x68>
20003710:	fef415e3          	bne	s0,a5,200036fa <__wrap_putchar+0x4e>
20003714:	3b01                	jal	20003424 <stdio_out_chars_crlf>
20003716:	4800                	lw	s0,16(s0)
20003718:	f07d                	bnez	s0,200036fe <__wrap_putchar+0x52>
2000371a:	5902                	lw	s2,32(sp)
2000371c:	00099a63          	bnez	s3,20003730 <__wrap_putchar+0x84>
20003720:	50b2                	lw	ra,44(sp)
20003722:	5422                	lw	s0,40(sp)
20003724:	49f2                	lw	s3,28(sp)
20003726:	4a62                	lw	s4,24(sp)
20003728:	8526                	mv	a0,s1
2000372a:	5492                	lw	s1,36(sp)
2000372c:	6145                	addi	sp,sp,48
2000372e:	8082                	ret
20003730:	ed4a0513          	addi	a0,s4,-300
20003734:	c6ffc0ef          	jal	200003a2 <mutex_exit>
20003738:	50b2                	lw	ra,44(sp)
2000373a:	5422                	lw	s0,40(sp)
2000373c:	49f2                	lw	s3,28(sp)
2000373e:	4a62                	lw	s4,24(sp)
20003740:	8526                	mv	a0,s1
20003742:	5492                	lw	s1,36(sp)
20003744:	6145                	addi	sp,sp,48
20003746:	8082                	ret

20003748 <__wrap_puts>:
20003748:	1141                	addi	sp,sp,-16
2000374a:	c606                	sw	ra,12(sp)
2000374c:	c422                	sw	s0,8(sp)
2000374e:	c226                	sw	s1,4(sp)
20003750:	842a                	mv	s0,a0
20003752:	040030ef          	jal	20006792 <strlen>
20003756:	84aa                	mv	s1,a0
20003758:	4685                	li	a3,1
2000375a:	8522                	mv	a0,s0
2000375c:	85a6                	mv	a1,s1
2000375e:	8636                	mv	a2,a3
20003760:	3535                	jal	2000358c <stdio_put_string>
20003762:	8181a403          	lw	s0,-2024(gp) # 2000711c <drivers>
20003766:	c411                	beqz	s0,20003772 <__wrap_puts+0x2a>
20003768:	405c                	lw	a5,4(s0)
2000376a:	cb91                	beqz	a5,2000377e <__wrap_puts+0x36>
2000376c:	9782                	jalr	a5
2000376e:	4800                	lw	s0,16(s0)
20003770:	fc65                	bnez	s0,20003768 <__wrap_puts+0x20>
20003772:	40b2                	lw	ra,12(sp)
20003774:	4422                	lw	s0,8(sp)
20003776:	8526                	mv	a0,s1
20003778:	4492                	lw	s1,4(sp)
2000377a:	0141                	addi	sp,sp,16
2000377c:	8082                	ret
2000377e:	4800                	lw	s0,16(s0)
20003780:	f465                	bnez	s0,20003768 <__wrap_puts+0x20>
20003782:	40b2                	lw	ra,12(sp)
20003784:	4422                	lw	s0,8(sp)
20003786:	8526                	mv	a0,s1
20003788:	4492                	lw	s1,4(sp)
2000378a:	0141                	addi	sp,sp,16
2000378c:	8082                	ret

2000378e <__wrap_vprintf>:
2000378e:	7171                	addi	sp,sp,-176
20003790:	d522                	sw	s0,168(sp)
20003792:	d326                	sw	s1,164(sp)
20003794:	d706                	sw	ra,172(sp)
20003796:	d14a                	sw	s2,160(sp)
20003798:	cf4e                	sw	s3,156(sp)
2000379a:	cb56                	sw	s5,148(sp)
2000379c:	842a                	mv	s0,a0
2000379e:	84ae                	mv	s1,a1
200037a0:	e27fd0ef          	jal	200015c6 <time_us_64>
200037a4:	000f47b7          	lui	a5,0xf4
200037a8:	24078793          	addi	a5,a5,576 # f4240 <HeapSize+0xf3a40>
200037ac:	97aa                	add	a5,a5,a0
200037ae:	00a7b633          	sltu	a2,a5,a0
200037b2:	80000737          	lui	a4,0x80000
200037b6:	962e                	add	a2,a2,a1
200037b8:	177d                	addi	a4,a4,-1 # 7fffffff <__StackTop+0x5ff7dfff>
200037ba:	85be                	mv	a1,a5
200037bc:	00c77463          	bgeu	a4,a2,200037c4 <__wrap_vprintf+0x36>
200037c0:	863a                	mv	a2,a4
200037c2:	55fd                	li	a1,-1
200037c4:	200079b7          	lui	s3,0x20007
200037c8:	ed498513          	addi	a0,s3,-300 # 20006ed4 <print_mutex>
200037cc:	b6dfc0ef          	jal	20000338 <mutex_try_enter_block_until>
200037d0:	892a                	mv	s2,a0
200037d2:	20003537          	lui	a0,0x20003
200037d6:	86a6                	mv	a3,s1
200037d8:	8622                	mv	a2,s0
200037da:	006c                	addi	a1,sp,12
200037dc:	51450513          	addi	a0,a0,1300 # 20003514 <stdio_buffered_printer>
200037e0:	c602                	sw	zero,12(sp)
200037e2:	3651                	jal	20003366 <vfctprintf>
200037e4:	47b2                	lw	a5,12(sp)
200037e6:	8181a403          	lw	s0,-2024(gp) # 2000711c <drivers>
200037ea:	84aa                	mv	s1,a0
200037ec:	c3b9                	beqz	a5,20003832 <__wrap_vprintf+0xa4>
200037ee:	cd52                	sw	s4,152(sp)
200037f0:	e015                	bnez	s0,20003814 <__wrap_vprintf+0x86>
200037f2:	4a6a                	lw	s4,152(sp)
200037f4:	c602                	sw	zero,12(sp)
200037f6:	04091863          	bnez	s2,20003846 <__wrap_vprintf+0xb8>
200037fa:	50ba                	lw	ra,172(sp)
200037fc:	542a                	lw	s0,168(sp)
200037fe:	590a                	lw	s2,160(sp)
20003800:	49fa                	lw	s3,156(sp)
20003802:	4ada                	lw	s5,148(sp)
20003804:	8526                	mv	a0,s1
20003806:	549a                	lw	s1,164(sp)
20003808:	614d                	addi	sp,sp,176
2000380a:	8082                	ret
2000380c:	4632                	lw	a2,12(sp)
2000380e:	3919                	jal	20003424 <stdio_out_chars_crlf>
20003810:	4800                	lw	s0,16(s0)
20003812:	cc01                	beqz	s0,2000382a <__wrap_vprintf+0x9c>
20003814:	401c                	lw	a5,0(s0)
20003816:	080c                	addi	a1,sp,16
20003818:	8522                	mv	a0,s0
2000381a:	dbfd                	beqz	a5,20003810 <__wrap_vprintf+0x82>
2000381c:	8141a783          	lw	a5,-2028(gp) # 20007118 <filter>
20003820:	d7f5                	beqz	a5,2000380c <__wrap_vprintf+0x7e>
20003822:	fe8785e3          	beq	a5,s0,2000380c <__wrap_vprintf+0x7e>
20003826:	4800                	lw	s0,16(s0)
20003828:	f475                	bnez	s0,20003814 <__wrap_vprintf+0x86>
2000382a:	8181a403          	lw	s0,-2024(gp) # 2000711c <drivers>
2000382e:	4a6a                	lw	s4,152(sp)
20003830:	c602                	sw	zero,12(sp)
20003832:	d071                	beqz	s0,200037f6 <__wrap_vprintf+0x68>
20003834:	405c                	lw	a5,4(s0)
20003836:	c791                	beqz	a5,20003842 <__wrap_vprintf+0xb4>
20003838:	9782                	jalr	a5
2000383a:	4800                	lw	s0,16(s0)
2000383c:	dc4d                	beqz	s0,200037f6 <__wrap_vprintf+0x68>
2000383e:	405c                	lw	a5,4(s0)
20003840:	ffe5                	bnez	a5,20003838 <__wrap_vprintf+0xaa>
20003842:	4800                	lw	s0,16(s0)
20003844:	b7fd                	j	20003832 <__wrap_vprintf+0xa4>
20003846:	ed498513          	addi	a0,s3,-300
2000384a:	b59fc0ef          	jal	200003a2 <mutex_exit>
2000384e:	b775                	j	200037fa <__wrap_vprintf+0x6c>

20003850 <__wrap_printf>:
20003850:	7139                	addi	sp,sp,-64
20003852:	02410313          	addi	t1,sp,36
20003856:	d22e                	sw	a1,36(sp)
20003858:	859a                	mv	a1,t1
2000385a:	ce06                	sw	ra,28(sp)
2000385c:	d432                	sw	a2,40(sp)
2000385e:	d636                	sw	a3,44(sp)
20003860:	d83a                	sw	a4,48(sp)
20003862:	da3e                	sw	a5,52(sp)
20003864:	dc42                	sw	a6,56(sp)
20003866:	de46                	sw	a7,60(sp)
20003868:	c61a                	sw	t1,12(sp)
2000386a:	3715                	jal	2000378e <__wrap_vprintf>
2000386c:	40f2                	lw	ra,28(sp)
2000386e:	6121                	addi	sp,sp,64
20003870:	8082                	ret

20003872 <stdio_uart_out_chars>:
20003872:	02b05e63          	blez	a1,200038ae <stdio_uart_out_chars+0x3c>
20003876:	8241a703          	lw	a4,-2012(gp) # 20007128 <uart_instance>
2000387a:	bff887b7          	lui	a5,0xbff88
2000387e:	97ba                	add	a5,a5,a4
20003880:	0017b793          	seqz	a5,a5
20003884:	80c18693          	addi	a3,gp,-2036 # 20007110 <uart_char_to_line_feed>
20003888:	20d7a7b3          	sh1add	a5,a5,a3
2000388c:	00079803          	lh	a6,0(a5) # bff88000 <__StackTop+0x9ff06000>
20003890:	00b50633          	add	a2,a0,a1
20003894:	45b5                	li	a1,13
20003896:	00054683          	lbu	a3,0(a0)
2000389a:	00d80b63          	beq	a6,a3,200038b0 <stdio_uart_out_chars+0x3e>
2000389e:	4f1c                	lw	a5,24(a4)
200038a0:	0207f793          	andi	a5,a5,32
200038a4:	ffed                	bnez	a5,2000389e <stdio_uart_out_chars+0x2c>
200038a6:	c314                	sw	a3,0(a4)
200038a8:	0505                	addi	a0,a0,1
200038aa:	fec516e3          	bne	a0,a2,20003896 <stdio_uart_out_chars+0x24>
200038ae:	8082                	ret
200038b0:	4f1c                	lw	a5,24(a4)
200038b2:	0207f793          	andi	a5,a5,32
200038b6:	ffed                	bnez	a5,200038b0 <stdio_uart_out_chars+0x3e>
200038b8:	c30c                	sw	a1,0(a4)
200038ba:	b7d5                	j	2000389e <stdio_uart_out_chars+0x2c>

200038bc <stdio_uart_in_chars>:
200038bc:	8201a803          	lw	a6,-2016(gp) # 20007124 <chars_available_callback>
200038c0:	862a                	mv	a2,a0
200038c2:	06b05163          	blez	a1,20003924 <stdio_uart_in_chars+0x68>
200038c6:	8241a703          	lw	a4,-2012(gp) # 20007128 <uart_instance>
200038ca:	4501                	li	a0,0
200038cc:	4f1c                	lw	a5,24(a4)
200038ce:	8bc1                	andi	a5,a5,16
200038d0:	eb9d                	bnez	a5,20003906 <stdio_uart_in_chars+0x4a>
200038d2:	0505                	addi	a0,a0,1
200038d4:	4f1c                	lw	a5,24(a4)
200038d6:	8bc1                	andi	a5,a5,16
200038d8:	fff5                	bnez	a5,200038d4 <stdio_uart_in_chars+0x18>
200038da:	4314                	lw	a3,0(a4)
200038dc:	00a607b3          	add	a5,a2,a0
200038e0:	fed78fa3          	sb	a3,-1(a5)
200038e4:	fea594e3          	bne	a1,a0,200038cc <stdio_uart_in_chars+0x10>
200038e8:	00080d63          	beqz	a6,20003902 <stdio_uart_in_chars+0x46>
200038ec:	05000793          	li	a5,80
200038f0:	df1c                	sw	a5,56(a4)
200038f2:	5b5c                	lw	a5,52(a4)
200038f4:	6685                	lui	a3,0x1
200038f6:	03468693          	addi	a3,a3,52 # 1034 <HeapSize+0x834>
200038fa:	0387f793          	andi	a5,a5,56
200038fe:	9736                	add	a4,a4,a3
20003900:	c31c                	sw	a5,0(a4)
20003902:	852e                	mv	a0,a1
20003904:	8082                	ret
20003906:	00080d63          	beqz	a6,20003920 <stdio_uart_in_chars+0x64>
2000390a:	05000793          	li	a5,80
2000390e:	df1c                	sw	a5,56(a4)
20003910:	5b5c                	lw	a5,52(a4)
20003912:	6685                	lui	a3,0x1
20003914:	03468693          	addi	a3,a3,52 # 1034 <HeapSize+0x834>
20003918:	0387f793          	andi	a5,a5,56
2000391c:	9736                	add	a4,a4,a3
2000391e:	c31c                	sw	a5,0(a4)
20003920:	c10d                	beqz	a0,20003942 <stdio_uart_in_chars+0x86>
20003922:	8082                	ret
20003924:	00080f63          	beqz	a6,20003942 <stdio_uart_in_chars+0x86>
20003928:	8241a783          	lw	a5,-2012(gp) # 20007128 <uart_instance>
2000392c:	05000713          	li	a4,80
20003930:	6685                	lui	a3,0x1
20003932:	df98                	sw	a4,56(a5)
20003934:	5bd8                	lw	a4,52(a5)
20003936:	03468693          	addi	a3,a3,52 # 1034 <HeapSize+0x834>
2000393a:	97b6                	add	a5,a5,a3
2000393c:	03877713          	andi	a4,a4,56
20003940:	c398                	sw	a4,0(a5)
20003942:	5575                	li	a0,-3
20003944:	8082                	ret

20003946 <on_uart_rx>:
20003946:	8201a783          	lw	a5,-2016(gp) # 20007124 <chars_available_callback>
2000394a:	cb81                	beqz	a5,2000395a <on_uart_rx+0x14>
2000394c:	8241a703          	lw	a4,-2012(gp) # 20007128 <uart_instance>
20003950:	81c1a503          	lw	a0,-2020(gp) # 20007120 <chars_available_param>
20003954:	02072c23          	sw	zero,56(a4)
20003958:	8782                	jr	a5
2000395a:	8082                	ret

2000395c <stdio_uart_out_flush>:
2000395c:	8241a703          	lw	a4,-2012(gp) # 20007128 <uart_instance>
20003960:	4f1c                	lw	a5,24(a4)
20003962:	8ba1                	andi	a5,a5,8
20003964:	fff5                	bnez	a5,20003960 <stdio_uart_out_flush+0x4>
20003966:	8082                	ret

20003968 <stdio_uart_set_chars_available_callback>:
20003968:	1141                	addi	sp,sp,-16
2000396a:	c04a                	sw	s2,0(sp)
2000396c:	8241a603          	lw	a2,-2012(gp) # 20007128 <uart_instance>
20003970:	400787b7          	lui	a5,0x40078
20003974:	c422                	sw	s0,8(sp)
20003976:	40f607b3          	sub	a5,a2,a5
2000397a:	0017b793          	seqz	a5,a5
2000397e:	c226                	sw	s1,4(sp)
20003980:	c606                	sw	ra,12(sp)
20003982:	02178413          	addi	s0,a5,33 # 40078021 <__StackTop+0x1fff6021>
20003986:	8201a783          	lw	a5,-2016(gp) # 20007124 <chars_available_callback>
2000398a:	c901                	beqz	a0,2000399a <stdio_uart_set_chars_available_callback+0x32>
2000398c:	cf9d                	beqz	a5,200039ca <stdio_uart_set_chars_available_callback+0x62>
2000398e:	40b2                	lw	ra,12(sp)
20003990:	4422                	lw	s0,8(sp)
20003992:	4492                	lw	s1,4(sp)
20003994:	4902                	lw	s2,0(sp)
20003996:	0141                	addi	sp,sp,16
20003998:	8082                	ret
2000399a:	dbf5                	beqz	a5,2000398e <stdio_uart_set_chars_available_callback+0x26>
2000399c:	8522                	mv	a0,s0
2000399e:	02062c23          	sw	zero,56(a2)
200039a2:	4581                	li	a1,0
200039a4:	ec9fc0ef          	jal	2000086c <irq_set_enabled>
200039a8:	200045b7          	lui	a1,0x20004
200039ac:	8522                	mv	a0,s0
200039ae:	94658593          	addi	a1,a1,-1722 # 20003946 <on_uart_rx>
200039b2:	f79fc0ef          	jal	2000092a <irq_remove_handler>
200039b6:	40b2                	lw	ra,12(sp)
200039b8:	4422                	lw	s0,8(sp)
200039ba:	8201a023          	sw	zero,-2016(gp) # 20007124 <chars_available_callback>
200039be:	8001ae23          	sw	zero,-2020(gp) # 20007120 <chars_available_param>
200039c2:	4492                	lw	s1,4(sp)
200039c4:	4902                	lw	s2,0(sp)
200039c6:	0141                	addi	sp,sp,16
200039c8:	8082                	ret
200039ca:	86ae                	mv	a3,a1
200039cc:	200045b7          	lui	a1,0x20004
200039d0:	872a                	mv	a4,a0
200039d2:	8522                	mv	a0,s0
200039d4:	94658593          	addi	a1,a1,-1722 # 20003946 <on_uart_rx>
200039d8:	82e1a023          	sw	a4,-2016(gp) # 20007124 <chars_available_callback>
200039dc:	80d1ae23          	sw	a3,-2020(gp) # 20007120 <chars_available_param>
200039e0:	ec3fc0ef          	jal	200008a2 <irq_set_exclusive_handler>
200039e4:	8522                	mv	a0,s0
200039e6:	4585                	li	a1,1
200039e8:	e85fc0ef          	jal	2000086c <irq_set_enabled>
200039ec:	8241a783          	lw	a5,-2012(gp) # 20007128 <uart_instance>
200039f0:	05000713          	li	a4,80
200039f4:	6685                	lui	a3,0x1
200039f6:	df98                	sw	a4,56(a5)
200039f8:	5bd8                	lw	a4,52(a5)
200039fa:	40b2                	lw	ra,12(sp)
200039fc:	4422                	lw	s0,8(sp)
200039fe:	03468693          	addi	a3,a3,52 # 1034 <HeapSize+0x834>
20003a02:	97b6                	add	a5,a5,a3
20003a04:	03877713          	andi	a4,a4,56
20003a08:	c398                	sw	a4,0(a5)
20003a0a:	4492                	lw	s1,4(sp)
20003a0c:	4902                	lw	s2,0(sp)
20003a0e:	0141                	addi	sp,sp,16
20003a10:	8082                	ret

20003a12 <stdio_uart_init>:
20003a12:	20007637          	lui	a2,0x20007
20003a16:	20007737          	lui	a4,0x20007
20003a1a:	200077b7          	lui	a5,0x20007
20003a1e:	1141                	addi	sp,sp,-16
20003a20:	e5464603          	lbu	a2,-428(a2) # 20006e54 <__bi_ptr45.13>
20003a24:	e5074703          	lbu	a4,-432(a4) # 20006e50 <__bi_ptr49.12>
20003a28:	e4c7c783          	lbu	a5,-436(a5) # 20006e4c <__bi_ptr50.11>
20003a2c:	c422                	sw	s0,8(sp)
20003a2e:	400706b7          	lui	a3,0x40070
20003a32:	4589                	li	a1,2
20003a34:	4501                	li	a0,0
20003a36:	c606                	sw	ra,12(sp)
20003a38:	82d1a223          	sw	a3,-2012(gp) # 20007128 <uart_instance>
20003a3c:	bc3fc0ef          	jal	200005fe <gpio_set_function>
20003a40:	4589                	li	a1,2
20003a42:	4505                	li	a0,1
20003a44:	bbbfc0ef          	jal	200005fe <gpio_set_function>
20003a48:	8241a503          	lw	a0,-2012(gp) # 20007128 <uart_instance>
20003a4c:	65f1                	lui	a1,0x1c
20003a4e:	20058593          	addi	a1,a1,512 # 1c200 <HeapSize+0x1ba00>
20003a52:	beffd0ef          	jal	20001640 <uart_init>
20003a56:	4422                	lw	s0,8(sp)
20003a58:	40b2                	lw	ra,12(sp)
20003a5a:	20007537          	lui	a0,0x20007
20003a5e:	eb850513          	addi	a0,a0,-328 # 20006eb8 <stdio_uart>
20003a62:	4585                	li	a1,1
20003a64:	0141                	addi	sp,sp,16
20003a66:	b939                	j	20003684 <stdio_set_driver_enabled>

20003a68 <add_program_at_offset>:
20003a68:	16852703          	lw	a4,360(a0)
20003a6c:	0075c783          	lbu	a5,7(a1)
20003a70:	882a                	mv	a6,a0
20003a72:	cf25                	beqz	a4,20003aea <add_program_at_offset+0x82>
20003a74:	8b85                	andi	a5,a5,1
20003a76:	efb5                	bnez	a5,20003af2 <add_program_at_offset+0x8a>
20003a78:	00558783          	lb	a5,5(a1)
20003a7c:	0007c463          	bltz	a5,20003a84 <add_program_at_offset+0x1c>
20003a80:	06f61963          	bne	a2,a5,20003af2 <add_program_at_offset+0x8a>
20003a84:	afe007b7          	lui	a5,0xafe00
20003a88:	0045c503          	lbu	a0,4(a1)
20003a8c:	97c2                	add	a5,a5,a6
20003a8e:	20007e37          	lui	t3,0x20007
20003a92:	83d1                	srli	a5,a5,0x14
20003a94:	0b0e0e13          	addi	t3,t3,176 # 200070b0 <_used_instruction_space>
20003a98:	21c7c733          	sh2add	a4,a5,t3
20003a9c:	00072f03          	lw	t5,0(a4)
20003aa0:	28a01eb3          	bset	t4,zero,a0
20003aa4:	1efd                	addi	t4,t4,-1
20003aa6:	00ce9eb3          	sll	t4,t4,a2
20003aaa:	01df7733          	and	a4,t5,t4
20003aae:	00279313          	slli	t1,a5,0x2
20003ab2:	e331                	bnez	a4,20003af6 <add_program_at_offset+0x8e>
20003ab4:	419c                	lw	a5,0(a1)
20003ab6:	c11d                	beqz	a0,20003adc <add_program_at_offset+0x74>
20003ab8:	20f52533          	sh1add	a0,a0,a5
20003abc:	85b2                	mv	a1,a2
20003abe:	6889                	lui	a7,0x2
20003ac0:	0007d683          	lhu	a3,0(a5) # afe00000 <__StackTop+0x8fd7e000>
20003ac4:	01058713          	addi	a4,a1,16
20003ac8:	21074733          	sh2add	a4,a4,a6
20003acc:	0789                	addi	a5,a5,2
20003ace:	0116f363          	bgeu	a3,a7,20003ad4 <add_program_at_offset+0x6c>
20003ad2:	96b2                	add	a3,a3,a2
20003ad4:	c714                	sw	a3,8(a4)
20003ad6:	0585                	addi	a1,a1,1
20003ad8:	fea794e3          	bne	a5,a0,20003ac0 <add_program_at_offset+0x58>
20003adc:	9e1a                	add	t3,t3,t1
20003ade:	01df6f33          	or	t5,t5,t4
20003ae2:	01ee2023          	sw	t5,0(t3)
20003ae6:	8532                	mv	a0,a2
20003ae8:	8082                	ret
20003aea:	8b91                	andi	a5,a5,4
20003aec:	5555                	li	a0,-11
20003aee:	d7c9                	beqz	a5,20003a78 <add_program_at_offset+0x10>
20003af0:	8082                	ret
20003af2:	5555                	li	a0,-11
20003af4:	8082                	ret
20003af6:	555d                	li	a0,-9
20003af8:	8082                	ret

20003afa <pio_sm_claim>:
20003afa:	afe007b7          	lui	a5,0xafe00
20003afe:	97aa                	add	a5,a5,a0
20003b00:	83d1                	srli	a5,a5,0x14
20003b02:	4709                	li	a4,2
20003b04:	02e78963          	beq	a5,a4,20003b36 <pio_sm_claim+0x3c>
20003b08:	4705                	li	a4,1
20003b0a:	00e78c63          	beq	a5,a4,20003b22 <pio_sm_claim+0x28>
20003b0e:	20007637          	lui	a2,0x20007
20003b12:	98060613          	addi	a2,a2,-1664 # 20006980 <strlen+0x1ee>
20003b16:	20b7c5b3          	sh2add	a1,a5,a1
20003b1a:	82818513          	addi	a0,gp,-2008 # 2000712c <claimed>
20003b1e:	b8dfc06f          	j	200006aa <hw_claim_or_assert>
20003b22:	20007637          	lui	a2,0x20007
20003b26:	9c060613          	addi	a2,a2,-1600 # 200069c0 <strlen+0x22e>
20003b2a:	20b7c5b3          	sh2add	a1,a5,a1
20003b2e:	82818513          	addi	a0,gp,-2008 # 2000712c <claimed>
20003b32:	b79fc06f          	j	200006aa <hw_claim_or_assert>
20003b36:	20007637          	lui	a2,0x20007
20003b3a:	99c60613          	addi	a2,a2,-1636 # 2000699c <strlen+0x20a>
20003b3e:	20b7c5b3          	sh2add	a1,a5,a1
20003b42:	82818513          	addi	a0,gp,-2008 # 2000712c <claimed>
20003b46:	b65fc06f          	j	200006aa <hw_claim_or_assert>

20003b4a <pio_sm_unclaim>:
20003b4a:	afe007b7          	lui	a5,0xafe00
20003b4e:	953e                	add	a0,a0,a5
20003b50:	8151                	srli	a0,a0,0x14
20003b52:	20b545b3          	sh2add	a1,a0,a1
20003b56:	82818513          	addi	a0,gp,-2008 # 2000712c <claimed>
20003b5a:	c4ffc06f          	j	200007a8 <hw_claim_clear>

20003b5e <pio_sm_set_consecutive_pindirs>:
20003b5e:	16852783          	lw	a5,360(a0)
20003b62:	8e1d                	sub	a2,a2,a5
20003b64:	47fd                	li	a5,31
20003b66:	08c7e363          	bltu	a5,a2,20003bec <pio_sm_set_consecutive_pindirs+0x8e>
20003b6a:	20b5a7b3          	sh1add	a5,a1,a1
20003b6e:	680d                	lui	a6,0x3
20003b70:	20a7e8b3          	sh3add	a7,a5,a0
20003b74:	0cc80813          	addi	a6,a6,204 # 30cc <HeapSize+0x28cc>
20003b78:	0dc8ae83          	lw	t4,220(a7) # 20dc <HeapSize+0x18dc>
20003b7c:	010887b3          	add	a5,a7,a6
20003b80:	00020337          	lui	t1,0x20
20003b84:	0cc8ae03          	lw	t3,204(a7)
20003b88:	6839                	lui	a6,0xe
20003b8a:	0067a023          	sw	t1,0(a5) # afe00000 <__StackTop+0x8fd7e000>
20003b8e:	08080813          	addi	a6,a6,128 # e080 <HeapSize+0xd880>
20003b92:	00159313          	slli	t1,a1,0x1
20003b96:	e739                	bnez	a4,20003be4 <pio_sm_set_consecutive_pindirs+0x86>
20003b98:	4895                	li	a7,5
20003b9a:	02d8f563          	bgeu	a7,a3,20003bc4 <pio_sm_set_consecutive_pindirs+0x66>
20003b9e:	00b30733          	add	a4,t1,a1
20003ba2:	20a76733          	sh3add	a4,a4,a0
20003ba6:	00561793          	slli	a5,a2,0x5
20003baa:	29a79793          	bseti	a5,a5,0x1a
20003bae:	29c79793          	bseti	a5,a5,0x1c
20003bb2:	0cf72e23          	sw	a5,220(a4)
20003bb6:	0615                	addi	a2,a2,5
20003bb8:	16ed                	addi	a3,a3,-5 # 4006fffb <__StackTop+0x1ffedffb>
20003bba:	0d072c23          	sw	a6,216(a4)
20003bbe:	8a7d                	andi	a2,a2,31
20003bc0:	fed8e3e3          	bltu	a7,a3,20003ba6 <pio_sm_set_consecutive_pindirs+0x48>
20003bc4:	0616                	slli	a2,a2,0x5
20003bc6:	932e                	add	t1,t1,a1
20003bc8:	06ea                	slli	a3,a3,0x1a
20003bca:	20a36533          	sh3add	a0,t1,a0
20003bce:	8ed1                	or	a3,a3,a2
20003bd0:	0cd52e23          	sw	a3,220(a0)
20003bd4:	0d052c23          	sw	a6,216(a0)
20003bd8:	0dd52e23          	sw	t4,220(a0)
20003bdc:	0dc52623          	sw	t3,204(a0)
20003be0:	4501                	li	a0,0
20003be2:	8082                	ret
20003be4:	6839                	lui	a6,0xe
20003be6:	09f80813          	addi	a6,a6,159 # e09f <HeapSize+0xd89f>
20003bea:	b77d                	j	20003b98 <pio_sm_set_consecutive_pindirs+0x3a>
20003bec:	556d                	li	a0,-5
20003bee:	8082                	ret

20003bf0 <pio_sm_init>:
20003bf0:	411c                	lw	a5,0(a0)
20003bf2:	48b797b3          	bclr	a5,a5,a1
20003bf6:	c11c                	sw	a5,0(a0)
20003bf8:	ced9                	beqz	a3,20003c96 <pio_sm_init+0xa6>
20003bfa:	4a9c                	lw	a5,16(a3)
20003bfc:	4298                	lw	a4,0(a3)
20003bfe:	0086ae83          	lw	t4,8(a3)
20003c02:	20b5a8b3          	sh1add	a7,a1,a1
20003c06:	20a8e8b3          	sh3add	a7,a7,a0
20003c0a:	fff7c813          	not	a6,a5
20003c0e:	0ce8a423          	sw	a4,200(a7)
20003c12:	00108e37          	lui	t3,0x108
20003c16:	00485713          	srli	a4,a6,0x4
20003c1a:	421e0e13          	addi	t3,t3,1057 # 108421 <HeapSize+0x107c21>
20003c1e:	00185313          	srli	t1,a6,0x1
20003c22:	0dd8a823          	sw	t4,208(a7)
20003c26:	01c77733          	and	a4,a4,t3
20003c2a:	01037333          	and	t1,t1,a6
20003c2e:	16852e03          	lw	t3,360(a0)
20003c32:	8385                	srli	a5,a5,0x1
20003c34:	00e37333          	and	t1,t1,a4
20003c38:	00e7f833          	and	a6,a5,a4
20003c3c:	00159793          	slli	a5,a1,0x1
20003c40:	02030063          	beqz	t1,20003c60 <pio_sm_init+0x70>
20003c44:	01c86833          	or	a6,a6,t3
20003c48:	0e081063          	bnez	a6,20003d28 <pio_sm_init+0x138>
20003c4c:	0046a303          	lw	t1,4(a3)
20003c50:	46d4                	lw	a3,12(a3)
20003c52:	00b78733          	add	a4,a5,a1
20003c56:	20a76733          	sh3add	a4,a4,a0
20003c5a:	0c672623          	sw	t1,204(a4)
20003c5e:	a02d                	j	20003c88 <pio_sm_init+0x98>
20003c60:	0a081663          	bnez	a6,20003d0c <pio_sm_init+0x11c>
20003c64:	00c6a803          	lw	a6,12(a3)
20003c68:	0046a303          	lw	t1,4(a3)
20003c6c:	86c2                	mv	a3,a6
20003c6e:	fe0e02e3          	beqz	t3,20003c52 <pio_sm_init+0x62>
20003c72:	01475693          	srli	a3,a4,0x14
20003c76:	06f2                	slli	a3,a3,0x1c
20003c78:	0066c6b3          	xor	a3,a3,t1
20003c7c:	0cd8a623          	sw	a3,204(a7)
20003c80:	0732                	slli	a4,a4,0xc
20003c82:	8321                	srli	a4,a4,0x8
20003c84:	010746b3          	xor	a3,a4,a6
20003c88:	00b78733          	add	a4,a5,a1
20003c8c:	20a76733          	sh3add	a4,a4,a0
20003c90:	0cd72e23          	sw	a3,220(a4)
20003c94:	a02d                	j	20003cbe <pio_sm_init+0xce>
20003c96:	20b5a7b3          	sh1add	a5,a1,a1
20003c9a:	20a7e7b3          	sh3add	a5,a5,a0
20003c9e:	6741                	lui	a4,0x10
20003ca0:	0ce7a423          	sw	a4,200(a5)
20003ca4:	000c0737          	lui	a4,0xc0
20003ca8:	0ce7a823          	sw	a4,208(a5)
20003cac:	677d                	lui	a4,0x1f
20003cae:	16852683          	lw	a3,360(a0)
20003cb2:	0ce7a623          	sw	a4,204(a5)
20003cb6:	0c07ae23          	sw	zero,220(a5)
20003cba:	00159793          	slli	a5,a1,0x1
20003cbe:	97ae                	add	a5,a5,a1
20003cc0:	078e                	slli	a5,a5,0x3
20003cc2:	0d078713          	addi	a4,a5,208
20003cc6:	972a                	add	a4,a4,a0
20003cc8:	6685                	lui	a3,0x1
20003cca:	9736                	add	a4,a4,a3
20003ccc:	80000837          	lui	a6,0x80000
20003cd0:	010106b7          	lui	a3,0x1010
20003cd4:	01072023          	sw	a6,0(a4) # 1f000 <HeapSize+0x1e800>
20003cd8:	10168693          	addi	a3,a3,257 # 1010101 <HeapSize+0x100f901>
20003cdc:	01072023          	sw	a6,0(a4)
20003ce0:	00b69733          	sll	a4,a3,a1
20003ce4:	00458813          	addi	a6,a1,4
20003ce8:	6689                	lui	a3,0x2
20003cea:	c518                	sw	a4,8(a0)
20003cec:	29001833          	bset	a6,zero,a6
20003cf0:	00d50733          	add	a4,a0,a3
20003cf4:	05a1                	addi	a1,a1,8
20003cf6:	01072023          	sw	a6,0(a4)
20003cfa:	28b015b3          	bset	a1,zero,a1
20003cfe:	953e                	add	a0,a0,a5
20003d00:	8a7d                	andi	a2,a2,31
20003d02:	c30c                	sw	a1,0(a4)
20003d04:	0cc52c23          	sw	a2,216(a0)
20003d08:	4501                	li	a0,0
20003d0a:	8082                	ret
20003d0c:	000e0e63          	beqz	t3,20003d28 <pio_sm_init+0x138>
20003d10:	0046a303          	lw	t1,4(a3) # 2004 <HeapSize+0x1804>
20003d14:	01475813          	srli	a6,a4,0x14
20003d18:	0872                	slli	a6,a6,0x1c
20003d1a:	00684833          	xor	a6,a6,t1
20003d1e:	0d08a623          	sw	a6,204(a7)
20003d22:	00c6a803          	lw	a6,12(a3)
20003d26:	bfa9                	j	20003c80 <pio_sm_init+0x90>
20003d28:	5555                	li	a0,-11
20003d2a:	8082                	ret

20003d2c <pio_claim_free_sm_and_add_program_for_gpio_range>:
20003d2c:	7159                	addi	sp,sp,-112
20003d2e:	ccd2                	sw	s4,88(sp)
20003d30:	d686                	sw	ra,108(sp)
20003d32:	d4a2                	sw	s0,104(sp)
20003d34:	d2a6                	sw	s1,100(sp)
20003d36:	d0ca                	sw	s2,96(sp)
20003d38:	cece                	sw	s3,92(sp)
20003d3a:	cad6                	sw	s5,84(sp)
20003d3c:	c8da                	sw	s6,80(sp)
20003d3e:	c6de                	sw	s7,76(sp)
20003d40:	c4e2                	sw	s8,72(sp)
20003d42:	c2e6                	sw	s9,68(sp)
20003d44:	c0ea                	sw	s10,64(sp)
20003d46:	de6e                	sw	s11,60(sp)
20003d48:	c63e                	sw	a5,12(sp)
20003d4a:	ca2a                	sw	a0,20(sp)
20003d4c:	cc32                	sw	a2,24(sp)
20003d4e:	ce36                	sw	a3,28(sp)
20003d50:	8a2e                	mv	s4,a1
20003d52:	cb99                	beqz	a5,20003d68 <pio_claim_free_sm_and_add_program_for_gpio_range+0x3c>
20003d54:	fff70693          	addi	a3,a4,-1
20003d58:	96be                	add	a3,a3,a5
20003d5a:	8311                	srli	a4,a4,0x4
20003d5c:	8291                	srli	a3,a3,0x4
20003d5e:	28e017b3          	bset	a5,zero,a4
20003d62:	28d797b3          	bset	a5,a5,a3
20003d66:	c63e                	sw	a5,12(sp)
20003d68:	00180793          	addi	a5,a6,1 # 80000001 <__StackTop+0x5ff7e001>
20003d6c:	c43e                	sw	a5,8(sp)
20003d6e:	4b01                	li	s6,0
20003d70:	200074b7          	lui	s1,0x20007
20003d74:	50200c37          	lui	s8,0x50200
20003d78:	02c10b93          	addi	s7,sp,44
20003d7c:	4a91                	li	s5,4
20003d7e:	00200937          	lui	s2,0x200
20003d82:	afe009b7          	lui	s3,0xafe00
20003d86:	01890cb3          	add	s9,s2,s8
20003d8a:	019a2023          	sw	s9,0(s4)
20003d8e:	040b0f63          	beqz	s6,20003dec <pio_claim_free_sm_and_add_program_for_gpio_range+0xc0>
20003d92:	8d5e                	mv	s10,s7
20003d94:	4d81                	li	s11,0
20003d96:	9cce                	add	s9,s9,s3
20003d98:	014cdc93          	srli	s9,s9,0x14
20003d9c:	0c8a                	slli	s9,s9,0x2
20003d9e:	003c8693          	addi	a3,s9,3
20003da2:	8666                	mv	a2,s9
20003da4:	9e448713          	addi	a4,s1,-1564 # 200069e4 <strlen+0x252>
20003da8:	4581                	li	a1,0
20003daa:	82818513          	addi	a0,gp,-2008 # 2000712c <claimed>
20003dae:	963fc0ef          	jal	20000710 <hw_claim_unused_from_range>
20003db2:	419507b3          	sub	a5,a0,s9
20003db6:	60479793          	sext.b	a5,a5
20003dba:	19954363          	blt	a0,s9,20003f40 <pio_claim_free_sm_and_add_program_for_gpio_range+0x214>
20003dbe:	00fd0023          	sb	a5,0(s10)
20003dc2:	1607c063          	bltz	a5,20003f22 <pio_claim_free_sm_and_add_program_for_gpio_range+0x1f6>
20003dc6:	0d85                	addi	s11,s11,1
20003dc8:	0d5d8c63          	beq	s11,s5,20003ea0 <pio_claim_free_sm_and_add_program_for_gpio_range+0x174>
20003dcc:	000a2c83          	lw	s9,0(s4)
20003dd0:	0d05                	addi	s10,s10,1
20003dd2:	b7d1                	j	20003d96 <pio_claim_free_sm_and_add_program_for_gpio_range+0x6a>
20003dd4:	fff00737          	lui	a4,0xfff00
20003dd8:	00e906b3          	add	a3,s2,a4
20003ddc:	501007b7          	lui	a5,0x50100
20003de0:	08e68a63          	beq	a3,a4,20003e74 <pio_claim_free_sm_and_add_program_for_gpio_range+0x148>
20003de4:	97ca                	add	a5,a5,s2
20003de6:	00fa2023          	sw	a5,0(s4)
20003dea:	8936                	mv	s2,a3
20003dec:	01495c93          	srli	s9,s2,0x14
20003df0:	0c8a                	slli	s9,s9,0x2
20003df2:	003c8693          	addi	a3,s9,3
20003df6:	8666                	mv	a2,s9
20003df8:	9e448713          	addi	a4,s1,-1564
20003dfc:	4581                	li	a1,0
20003dfe:	82818513          	addi	a0,gp,-2008 # 2000712c <claimed>
20003e02:	90ffc0ef          	jal	20000710 <hw_claim_unused_from_range>
20003e06:	419507b3          	sub	a5,a0,s9
20003e0a:	60479793          	sext.b	a5,a5
20003e0e:	fd9543e3          	blt	a0,s9,20003dd4 <pio_claim_free_sm_and_add_program_for_gpio_range+0xa8>
20003e12:	02f10623          	sb	a5,44(sp)
20003e16:	fa07cfe3          	bltz	a5,20003dd4 <pio_claim_free_sm_and_add_program_for_gpio_range+0xa8>
20003e1a:	855fc0ef          	jal	2000066e <hw_claim_lock>
20003e1e:	000a2683          	lw	a3,0(s4)
20003e22:	8caa                	mv	s9,a0
20003e24:	4d85                	li	s11,1
20003e26:	1686a783          	lw	a5,360(a3)
20003e2a:	c3dd                	beqz	a5,20003ed0 <pio_claim_free_sm_and_add_program_for_gpio_range+0x1a4>
20003e2c:	47b2                	lw	a5,12(sp)
20003e2e:	8b85                	andi	a5,a5,1
20003e30:	c3dd                	beqz	a5,20003ed6 <pio_claim_free_sm_and_add_program_for_gpio_range+0x1aa>
20003e32:	8566                	mv	a0,s9
20003e34:	85ffc0ef          	jal	20000692 <hw_claim_unlock>
20003e38:	57d5                	li	a5,-11
20003e3a:	4d01                	li	s10,0
20003e3c:	c83e                	sw	a5,16(sp)
20003e3e:	afe00cb7          	lui	s9,0xafe00
20003e42:	000a2783          	lw	a5,0(s4)
20003e46:	01ab86b3          	add	a3,s7,s10
20003e4a:	00068583          	lb	a1,0(a3)
20003e4e:	97e6                	add	a5,a5,s9
20003e50:	83d1                	srli	a5,a5,0x14
20003e52:	20b7c5b3          	sh2add	a1,a5,a1
20003e56:	82818513          	addi	a0,gp,-2008 # 2000712c <claimed>
20003e5a:	0d05                	addi	s10,s10,1
20003e5c:	94dfc0ef          	jal	200007a8 <hw_claim_clear>
20003e60:	ffbd61e3          	bltu	s10,s11,20003e42 <pio_claim_free_sm_and_add_program_for_gpio_range+0x116>
20003e64:	47c2                	lw	a5,16(sp)
20003e66:	1407da63          	bgez	a5,20003fba <pio_claim_free_sm_and_add_program_for_gpio_range+0x28e>
20003e6a:	fff007b7          	lui	a5,0xfff00
20003e6e:	993e                	add	s2,s2,a5
20003e70:	f0f91be3          	bne	s2,a5,20003d86 <pio_claim_free_sm_and_add_program_for_gpio_range+0x5a>
20003e74:	47a2                	lw	a5,8(sp)
20003e76:	0b05                	addi	s6,s6,1
20003e78:	f0fb13e3          	bne	s6,a5,20003d7e <pio_claim_free_sm_and_add_program_for_gpio_range+0x52>
20003e7c:	000a2023          	sw	zero,0(s4)
20003e80:	4501                	li	a0,0
20003e82:	50b6                	lw	ra,108(sp)
20003e84:	5426                	lw	s0,104(sp)
20003e86:	5496                	lw	s1,100(sp)
20003e88:	5906                	lw	s2,96(sp)
20003e8a:	49f6                	lw	s3,92(sp)
20003e8c:	4a66                	lw	s4,88(sp)
20003e8e:	4ad6                	lw	s5,84(sp)
20003e90:	4b46                	lw	s6,80(sp)
20003e92:	4bb6                	lw	s7,76(sp)
20003e94:	4c26                	lw	s8,72(sp)
20003e96:	4c96                	lw	s9,68(sp)
20003e98:	4d06                	lw	s10,64(sp)
20003e9a:	5df2                	lw	s11,60(sp)
20003e9c:	6165                	addi	sp,sp,112
20003e9e:	8082                	ret
20003ea0:	fcefc0ef          	jal	2000066e <hw_claim_lock>
20003ea4:	000a2683          	lw	a3,0(s4)
20003ea8:	20007737          	lui	a4,0x20007
20003eac:	0b070713          	addi	a4,a4,176 # 200070b0 <_used_instruction_space>
20003eb0:	013687b3          	add	a5,a3,s3
20003eb4:	83d1                	srli	a5,a5,0x14
20003eb6:	20e7c7b3          	sh2add	a5,a5,a4
20003eba:	439c                	lw	a5,0(a5)
20003ebc:	8caa                	mv	s9,a0
20003ebe:	f7a5                	bnez	a5,20003e26 <pio_claim_free_sm_and_add_program_for_gpio_range+0xfa>
20003ec0:	47b2                	lw	a5,12(sp)
20003ec2:	078a                	slli	a5,a5,0x2
20003ec4:	8bc1                	andi	a5,a5,16
20003ec6:	16f6a423          	sw	a5,360(a3)
20003eca:	1686a783          	lw	a5,360(a3)
20003ece:	ffb9                	bnez	a5,20003e2c <pio_claim_free_sm_and_add_program_for_gpio_range+0x100>
20003ed0:	47b2                	lw	a5,12(sp)
20003ed2:	8b91                	andi	a5,a5,4
20003ed4:	ffb9                	bnez	a5,20003e32 <pio_claim_free_sm_and_add_program_for_gpio_range+0x106>
20003ed6:	4652                	lw	a2,20(sp)
20003ed8:	afe00737          	lui	a4,0xafe00
20003edc:	9736                	add	a4,a4,a3
20003ede:	00464883          	lbu	a7,4(a2)
20003ee2:	200077b7          	lui	a5,0x20007
20003ee6:	00560603          	lb	a2,5(a2)
20003eea:	0b078793          	addi	a5,a5,176 # 200070b0 <_used_instruction_space>
20003eee:	8351                	srli	a4,a4,0x14
20003ef0:	20f74733          	sh2add	a4,a4,a5
20003ef4:	291015b3          	bset	a1,zero,a7
20003ef8:	02000793          	li	a5,32
20003efc:	4308                	lw	a0,0(a4)
20003efe:	15fd                	addi	a1,a1,-1
20003f00:	411787b3          	sub	a5,a5,a7
20003f04:	06064263          	bltz	a2,20003f68 <pio_claim_free_sm_and_add_program_for_gpio_range+0x23c>
20003f08:	00c7c663          	blt	a5,a2,20003f14 <pio_claim_free_sm_and_add_program_for_gpio_range+0x1e8>
20003f0c:	00c597b3          	sll	a5,a1,a2
20003f10:	8fe9                	and	a5,a5,a0
20003f12:	c7bd                	beqz	a5,20003f80 <pio_claim_free_sm_and_add_program_for_gpio_range+0x254>
20003f14:	8566                	mv	a0,s9
20003f16:	f7cfc0ef          	jal	20000692 <hw_claim_unlock>
20003f1a:	57fd                	li	a5,-1
20003f1c:	4d01                	li	s10,0
20003f1e:	c83e                	sw	a5,16(sp)
20003f20:	bf39                	j	20003e3e <pio_claim_free_sm_and_add_program_for_gpio_range+0x112>
20003f22:	020d9663          	bnez	s11,20003f4e <pio_claim_free_sm_and_add_program_for_gpio_range+0x222>
20003f26:	fff00737          	lui	a4,0xfff00
20003f2a:	00e907b3          	add	a5,s2,a4
20003f2e:	f4e783e3          	beq	a5,a4,20003e74 <pio_claim_free_sm_and_add_program_for_gpio_range+0x148>
20003f32:	50100cb7          	lui	s9,0x50100
20003f36:	9cca                	add	s9,s9,s2
20003f38:	019a2023          	sw	s9,0(s4)
20003f3c:	893e                	mv	s2,a5
20003f3e:	bd91                	j	20003d92 <pio_claim_free_sm_and_add_program_for_gpio_range+0x66>
20003f40:	002d87b3          	add	a5,s11,sp
20003f44:	577d                	li	a4,-1
20003f46:	02e78623          	sb	a4,44(a5)
20003f4a:	fc0d8ee3          	beqz	s11,20003f26 <pio_claim_free_sm_and_add_program_for_gpio_range+0x1fa>
20003f4e:	fff007b7          	lui	a5,0xfff00
20003f52:	00f90733          	add	a4,s2,a5
20003f56:	f0f70fe3          	beq	a4,a5,20003e74 <pio_claim_free_sm_and_add_program_for_gpio_range+0x148>
20003f5a:	50100cb7          	lui	s9,0x50100
20003f5e:	9cca                	add	s9,s9,s2
20003f60:	019a2023          	sw	s9,0(s4)
20003f64:	893a                	mv	s2,a4
20003f66:	b535                	j	20003d92 <pio_claim_free_sm_and_add_program_for_gpio_range+0x66>
20003f68:	0407c263          	bltz	a5,20003fac <pio_claim_free_sm_and_add_program_for_gpio_range+0x280>
20003f6c:	58fd                	li	a7,-1
20003f6e:	a019                	j	20003f74 <pio_claim_free_sm_and_add_program_for_gpio_range+0x248>
20003f70:	03178e63          	beq	a5,a7,20003fac <pio_claim_free_sm_and_add_program_for_gpio_range+0x280>
20003f74:	00f59733          	sll	a4,a1,a5
20003f78:	8f69                	and	a4,a4,a0
20003f7a:	863e                	mv	a2,a5
20003f7c:	17fd                	addi	a5,a5,-1 # ffefffff <__StackTop+0xdfe7dfff>
20003f7e:	fb6d                	bnez	a4,20003f70 <pio_claim_free_sm_and_add_program_for_gpio_range+0x244>
20003f80:	45d2                	lw	a1,20(sp)
20003f82:	8536                	mv	a0,a3
20003f84:	ae5ff0ef          	jal	20003a68 <add_program_at_offset>
20003f88:	c82a                	sw	a0,16(sp)
20003f8a:	02054a63          	bltz	a0,20003fbe <pio_claim_free_sm_and_add_program_for_gpio_range+0x292>
20003f8e:	02c10783          	lb	a5,44(sp)
20003f92:	4762                	lw	a4,24(sp)
20003f94:	8566                	mv	a0,s9
20003f96:	c31c                	sw	a5,0(a4)
20003f98:	4742                	lw	a4,16(sp)
20003f9a:	47f2                	lw	a5,28(sp)
20003f9c:	c398                	sw	a4,0(a5)
20003f9e:	ef4fc0ef          	jal	20000692 <hw_claim_unlock>
20003fa2:	4705                	li	a4,1
20003fa4:	00ed8b63          	beq	s11,a4,20003fba <pio_claim_free_sm_and_add_program_for_gpio_range+0x28e>
20003fa8:	8d3a                	mv	s10,a4
20003faa:	bd51                	j	20003e3e <pio_claim_free_sm_and_add_program_for_gpio_range+0x112>
20003fac:	8566                	mv	a0,s9
20003fae:	ee4fc0ef          	jal	20000692 <hw_claim_unlock>
20003fb2:	57dd                	li	a5,-9
20003fb4:	4d01                	li	s10,0
20003fb6:	c83e                	sw	a5,16(sp)
20003fb8:	b559                	j	20003e3e <pio_claim_free_sm_and_add_program_for_gpio_range+0x112>
20003fba:	4505                	li	a0,1
20003fbc:	b5d9                	j	20003e82 <pio_claim_free_sm_and_add_program_for_gpio_range+0x156>
20003fbe:	8566                	mv	a0,s9
20003fc0:	ed2fc0ef          	jal	20000692 <hw_claim_unlock>
20003fc4:	4d01                	li	s10,0
20003fc6:	bda5                	j	20003e3e <pio_claim_free_sm_and_add_program_for_gpio_range+0x112>

20003fc8 <pio_remove_program_and_unclaim_sm>:
20003fc8:	1141                	addi	sp,sp,-16
20003fca:	c606                	sw	ra,12(sp)
20003fcc:	c422                	sw	s0,8(sp)
20003fce:	c226                	sw	s1,4(sp)
20003fd0:	c04a                	sw	s2,0(sp)
20003fd2:	00454783          	lbu	a5,4(a0)
20003fd6:	842e                	mv	s0,a1
20003fd8:	8932                	mv	s2,a2
20003fda:	28f017b3          	bset	a5,zero,a5
20003fde:	17fd                	addi	a5,a5,-1
20003fe0:	00d794b3          	sll	s1,a5,a3
20003fe4:	e8afc0ef          	jal	2000066e <hw_claim_lock>
20003fe8:	afe007b7          	lui	a5,0xafe00
20003fec:	97a2                	add	a5,a5,s0
20003fee:	20007737          	lui	a4,0x20007
20003ff2:	83d1                	srli	a5,a5,0x14
20003ff4:	0b070713          	addi	a4,a4,176 # 200070b0 <_used_instruction_space>
20003ff8:	20e7c733          	sh2add	a4,a5,a4
20003ffc:	4314                	lw	a3,0(a4)
20003ffe:	00279413          	slli	s0,a5,0x2
20004002:	4096f7b3          	andn	a5,a3,s1
20004006:	c31c                	sw	a5,0(a4)
20004008:	e8afc0ef          	jal	20000692 <hw_claim_unlock>
2000400c:	012405b3          	add	a1,s0,s2
20004010:	4422                	lw	s0,8(sp)
20004012:	40b2                	lw	ra,12(sp)
20004014:	4492                	lw	s1,4(sp)
20004016:	4902                	lw	s2,0(sp)
20004018:	82818513          	addi	a0,gp,-2008 # 2000712c <claimed>
2000401c:	0141                	addi	sp,sp,16
2000401e:	f8afc06f          	j	200007a8 <hw_claim_clear>

20004022 <__udivdi3>:
20004022:	8832                	mv	a6,a2
20004024:	88aa                	mv	a7,a0
20004026:	872e                	mv	a4,a1
20004028:	ead5                	bnez	a3,200040dc <__udivdi3+0xba>
2000402a:	0ec5ff63          	bgeu	a1,a2,20004128 <__udivdi3+0x106>
2000402e:	67c1                	lui	a5,0x10
20004030:	18f66c63          	bltu	a2,a5,200041c8 <__udivdi3+0x1a6>
20004034:	010007b7          	lui	a5,0x1000
20004038:	46e1                	li	a3,24
2000403a:	00f67363          	bgeu	a2,a5,20004040 <__udivdi3+0x1e>
2000403e:	46c1                	li	a3,16
20004040:	200077b7          	lui	a5,0x20007
20004044:	00d65333          	srl	t1,a2,a3
20004048:	c8c78793          	addi	a5,a5,-884 # 20006c8c <__clz_tab>
2000404c:	979a                	add	a5,a5,t1
2000404e:	0007c783          	lbu	a5,0(a5)
20004052:	02000313          	li	t1,32
20004056:	97b6                	add	a5,a5,a3
20004058:	40f306b3          	sub	a3,t1,a5
2000405c:	00f30b63          	beq	t1,a5,20004072 <__udivdi3+0x50>
20004060:	00d59733          	sll	a4,a1,a3
20004064:	00f557b3          	srl	a5,a0,a5
20004068:	8f5d                	or	a4,a4,a5
2000406a:	00d61833          	sll	a6,a2,a3
2000406e:	00d518b3          	sll	a7,a0,a3
20004072:	01085613          	srli	a2,a6,0x10
20004076:	02c75533          	divu	a0,a4,a2
2000407a:	01081693          	slli	a3,a6,0x10
2000407e:	82c1                	srli	a3,a3,0x10
20004080:	0108d793          	srli	a5,a7,0x10
20004084:	02c77733          	remu	a4,a4,a2
20004088:	02a685b3          	mul	a1,a3,a0
2000408c:	0742                	slli	a4,a4,0x10
2000408e:	8fd9                	or	a5,a5,a4
20004090:	00b7fa63          	bgeu	a5,a1,200040a4 <__udivdi3+0x82>
20004094:	97c2                	add	a5,a5,a6
20004096:	fff50713          	addi	a4,a0,-1
2000409a:	0107e463          	bltu	a5,a6,200040a2 <__udivdi3+0x80>
2000409e:	2eb7ef63          	bltu	a5,a1,2000439c <__udivdi3+0x37a>
200040a2:	853a                	mv	a0,a4
200040a4:	8f8d                	sub	a5,a5,a1
200040a6:	02c7d733          	divu	a4,a5,a2
200040aa:	08c2                	slli	a7,a7,0x10
200040ac:	0108d893          	srli	a7,a7,0x10
200040b0:	02c7f7b3          	remu	a5,a5,a2
200040b4:	02e686b3          	mul	a3,a3,a4
200040b8:	07c2                	slli	a5,a5,0x10
200040ba:	00f8e8b3          	or	a7,a7,a5
200040be:	00d8fb63          	bgeu	a7,a3,200040d4 <__udivdi3+0xb2>
200040c2:	98c2                	add	a7,a7,a6
200040c4:	fff70793          	addi	a5,a4,-1
200040c8:	0108e563          	bltu	a7,a6,200040d2 <__udivdi3+0xb0>
200040cc:	1779                	addi	a4,a4,-2
200040ce:	00d8e363          	bltu	a7,a3,200040d4 <__udivdi3+0xb2>
200040d2:	873e                	mv	a4,a5
200040d4:	0542                	slli	a0,a0,0x10
200040d6:	8d59                	or	a0,a0,a4
200040d8:	4581                	li	a1,0
200040da:	8082                	ret
200040dc:	00d5f563          	bgeu	a1,a3,200040e6 <__udivdi3+0xc4>
200040e0:	4581                	li	a1,0
200040e2:	4501                	li	a0,0
200040e4:	8082                	ret
200040e6:	67c1                	lui	a5,0x10
200040e8:	18f6e863          	bltu	a3,a5,20004278 <__udivdi3+0x256>
200040ec:	010007b7          	lui	a5,0x1000
200040f0:	4861                	li	a6,24
200040f2:	00f6f363          	bgeu	a3,a5,200040f8 <__udivdi3+0xd6>
200040f6:	4841                	li	a6,16
200040f8:	200077b7          	lui	a5,0x20007
200040fc:	0106d733          	srl	a4,a3,a6
20004100:	c8c78793          	addi	a5,a5,-884 # 20006c8c <__clz_tab>
20004104:	97ba                	add	a5,a5,a4
20004106:	0007c703          	lbu	a4,0(a5)
2000410a:	02000793          	li	a5,32
2000410e:	9742                	add	a4,a4,a6
20004110:	40e788b3          	sub	a7,a5,a4
20004114:	16e79863          	bne	a5,a4,20004284 <__udivdi3+0x262>
20004118:	26b6e463          	bltu	a3,a1,20004380 <__udivdi3+0x35e>
2000411c:	00c53533          	sltu	a0,a0,a2
20004120:	00153513          	seqz	a0,a0
20004124:	4581                	li	a1,0
20004126:	8082                	ret
20004128:	c655                	beqz	a2,200041d4 <__udivdi3+0x1b2>
2000412a:	67c1                	lui	a5,0x10
2000412c:	24f67263          	bgeu	a2,a5,20004370 <__udivdi3+0x34e>
20004130:	10063713          	sltiu	a4,a2,256
20004134:	00173713          	seqz	a4,a4
20004138:	070e                	slli	a4,a4,0x3
2000413a:	00e656b3          	srl	a3,a2,a4
2000413e:	200077b7          	lui	a5,0x20007
20004142:	c8c78793          	addi	a5,a5,-884 # 20006c8c <__clz_tab>
20004146:	97b6                	add	a5,a5,a3
20004148:	0007c783          	lbu	a5,0(a5)
2000414c:	02000693          	li	a3,32
20004150:	97ba                	add	a5,a5,a4
20004152:	40f68eb3          	sub	t4,a3,a5
20004156:	08f69f63          	bne	a3,a5,200041f4 <__udivdi3+0x1d2>
2000415a:	40c587b3          	sub	a5,a1,a2
2000415e:	01065693          	srli	a3,a2,0x10
20004162:	0642                	slli	a2,a2,0x10
20004164:	8241                	srli	a2,a2,0x10
20004166:	4585                	li	a1,1
20004168:	02d7d533          	divu	a0,a5,a3
2000416c:	0108d713          	srli	a4,a7,0x10
20004170:	02d7f7b3          	remu	a5,a5,a3
20004174:	02c50333          	mul	t1,a0,a2
20004178:	07c2                	slli	a5,a5,0x10
2000417a:	8fd9                	or	a5,a5,a4
2000417c:	0067fa63          	bgeu	a5,t1,20004190 <__udivdi3+0x16e>
20004180:	97c2                	add	a5,a5,a6
20004182:	fff50713          	addi	a4,a0,-1
20004186:	0107e463          	bltu	a5,a6,2000418e <__udivdi3+0x16c>
2000418a:	2067e663          	bltu	a5,t1,20004396 <__udivdi3+0x374>
2000418e:	853a                	mv	a0,a4
20004190:	406787b3          	sub	a5,a5,t1
20004194:	02d7d733          	divu	a4,a5,a3
20004198:	08c2                	slli	a7,a7,0x10
2000419a:	0108d893          	srli	a7,a7,0x10
2000419e:	02d7f7b3          	remu	a5,a5,a3
200041a2:	02c70633          	mul	a2,a4,a2
200041a6:	07c2                	slli	a5,a5,0x10
200041a8:	00f8e8b3          	or	a7,a7,a5
200041ac:	00c8fb63          	bgeu	a7,a2,200041c2 <__udivdi3+0x1a0>
200041b0:	98c2                	add	a7,a7,a6
200041b2:	fff70793          	addi	a5,a4,-1
200041b6:	0108e563          	bltu	a7,a6,200041c0 <__udivdi3+0x19e>
200041ba:	1779                	addi	a4,a4,-2
200041bc:	00c8e363          	bltu	a7,a2,200041c2 <__udivdi3+0x1a0>
200041c0:	873e                	mv	a4,a5
200041c2:	0542                	slli	a0,a0,0x10
200041c4:	8d59                	or	a0,a0,a4
200041c6:	8082                	ret
200041c8:	10063693          	sltiu	a3,a2,256
200041cc:	0016b693          	seqz	a3,a3
200041d0:	068e                	slli	a3,a3,0x3
200041d2:	b5bd                	j	20004040 <__udivdi3+0x1e>
200041d4:	200077b7          	lui	a5,0x20007
200041d8:	4681                	li	a3,0
200041da:	c8c78793          	addi	a5,a5,-884 # 20006c8c <__clz_tab>
200041de:	97b6                	add	a5,a5,a3
200041e0:	0007c783          	lbu	a5,0(a5)
200041e4:	4701                	li	a4,0
200041e6:	02000693          	li	a3,32
200041ea:	97ba                	add	a5,a5,a4
200041ec:	40f68eb3          	sub	t4,a3,a5
200041f0:	f6f685e3          	beq	a3,a5,2000415a <__udivdi3+0x138>
200041f4:	01d61833          	sll	a6,a2,t4
200041f8:	00f5d333          	srl	t1,a1,a5
200041fc:	01085693          	srli	a3,a6,0x10
20004200:	02d35e33          	divu	t3,t1,a3
20004204:	01081613          	slli	a2,a6,0x10
20004208:	01d595b3          	sll	a1,a1,t4
2000420c:	8241                	srli	a2,a2,0x10
2000420e:	00f557b3          	srl	a5,a0,a5
20004212:	8fcd                	or	a5,a5,a1
20004214:	0107d713          	srli	a4,a5,0x10
20004218:	01d518b3          	sll	a7,a0,t4
2000421c:	02d37333          	remu	t1,t1,a3
20004220:	03c605b3          	mul	a1,a2,t3
20004224:	0342                	slli	t1,t1,0x10
20004226:	00676733          	or	a4,a4,t1
2000422a:	00b77b63          	bgeu	a4,a1,20004240 <__udivdi3+0x21e>
2000422e:	9742                	add	a4,a4,a6
20004230:	fffe0513          	addi	a0,t3,-1
20004234:	15076d63          	bltu	a4,a6,2000438e <__udivdi3+0x36c>
20004238:	14b77b63          	bgeu	a4,a1,2000438e <__udivdi3+0x36c>
2000423c:	1e79                	addi	t3,t3,-2
2000423e:	9742                	add	a4,a4,a6
20004240:	8f0d                	sub	a4,a4,a1
20004242:	02d75533          	divu	a0,a4,a3
20004246:	07c2                	slli	a5,a5,0x10
20004248:	83c1                	srli	a5,a5,0x10
2000424a:	02d77733          	remu	a4,a4,a3
2000424e:	02a60333          	mul	t1,a2,a0
20004252:	0742                	slli	a4,a4,0x10
20004254:	8fd9                	or	a5,a5,a4
20004256:	0067fb63          	bgeu	a5,t1,2000426c <__udivdi3+0x24a>
2000425a:	97c2                	add	a5,a5,a6
2000425c:	fff50713          	addi	a4,a0,-1
20004260:	1307e363          	bltu	a5,a6,20004386 <__udivdi3+0x364>
20004264:	1267f163          	bgeu	a5,t1,20004386 <__udivdi3+0x364>
20004268:	1579                	addi	a0,a0,-2
2000426a:	97c2                	add	a5,a5,a6
2000426c:	010e1593          	slli	a1,t3,0x10
20004270:	8dc9                	or	a1,a1,a0
20004272:	406787b3          	sub	a5,a5,t1
20004276:	bdcd                	j	20004168 <__udivdi3+0x146>
20004278:	1006b813          	sltiu	a6,a3,256
2000427c:	00183813          	seqz	a6,a6
20004280:	080e                	slli	a6,a6,0x3
20004282:	bd9d                	j	200040f8 <__udivdi3+0xd6>
20004284:	00e65e33          	srl	t3,a2,a4
20004288:	011696b3          	sll	a3,a3,a7
2000428c:	00de6e33          	or	t3,t3,a3
20004290:	00e5d833          	srl	a6,a1,a4
20004294:	010e5e93          	srli	t4,t3,0x10
20004298:	03d857b3          	divu	a5,a6,t4
2000429c:	010e1313          	slli	t1,t3,0x10
200042a0:	011595b3          	sll	a1,a1,a7
200042a4:	01035313          	srli	t1,t1,0x10
200042a8:	00e55733          	srl	a4,a0,a4
200042ac:	8f4d                	or	a4,a4,a1
200042ae:	01075693          	srli	a3,a4,0x10
200042b2:	01161633          	sll	a2,a2,a7
200042b6:	03d87833          	remu	a6,a6,t4
200042ba:	02f305b3          	mul	a1,t1,a5
200042be:	0842                	slli	a6,a6,0x10
200042c0:	0106e6b3          	or	a3,a3,a6
200042c4:	00b6fb63          	bgeu	a3,a1,200042da <__udivdi3+0x2b8>
200042c8:	96f2                	add	a3,a3,t3
200042ca:	fff78813          	addi	a6,a5,-1
200042ce:	0dc6e263          	bltu	a3,t3,20004392 <__udivdi3+0x370>
200042d2:	0cb6f063          	bgeu	a3,a1,20004392 <__udivdi3+0x370>
200042d6:	17f9                	addi	a5,a5,-2
200042d8:	96f2                	add	a3,a3,t3
200042da:	8e8d                	sub	a3,a3,a1
200042dc:	03d6d833          	divu	a6,a3,t4
200042e0:	0742                	slli	a4,a4,0x10
200042e2:	8341                	srli	a4,a4,0x10
200042e4:	03d6f6b3          	remu	a3,a3,t4
200042e8:	030305b3          	mul	a1,t1,a6
200042ec:	06c2                	slli	a3,a3,0x10
200042ee:	8f55                	or	a4,a4,a3
200042f0:	00b77b63          	bgeu	a4,a1,20004306 <__udivdi3+0x2e4>
200042f4:	9772                	add	a4,a4,t3
200042f6:	fff80693          	addi	a3,a6,-1
200042fa:	09c76863          	bltu	a4,t3,2000438a <__udivdi3+0x368>
200042fe:	08b77663          	bgeu	a4,a1,2000438a <__udivdi3+0x368>
20004302:	1879                	addi	a6,a6,-2
20004304:	9772                	add	a4,a4,t3
20004306:	07c2                	slli	a5,a5,0x10
20004308:	01081693          	slli	a3,a6,0x10
2000430c:	01061313          	slli	t1,a2,0x10
20004310:	0107e7b3          	or	a5,a5,a6
20004314:	82c1                	srli	a3,a3,0x10
20004316:	01035313          	srli	t1,t1,0x10
2000431a:	0107d813          	srli	a6,a5,0x10
2000431e:	8241                	srli	a2,a2,0x10
20004320:	02680e33          	mul	t3,a6,t1
20004324:	8f0d                	sub	a4,a4,a1
20004326:	02668333          	mul	t1,a3,t1
2000432a:	02c686b3          	mul	a3,a3,a2
2000432e:	01035593          	srli	a1,t1,0x10
20004332:	96f2                	add	a3,a3,t3
20004334:	96ae                	add	a3,a3,a1
20004336:	02c80833          	mul	a6,a6,a2
2000433a:	01c6f463          	bgeu	a3,t3,20004342 <__udivdi3+0x320>
2000433e:	6641                	lui	a2,0x10
20004340:	9832                	add	a6,a6,a2
20004342:	0106d613          	srli	a2,a3,0x10
20004346:	9642                	add	a2,a2,a6
20004348:	02c76063          	bltu	a4,a2,20004368 <__udivdi3+0x346>
2000434c:	00c70563          	beq	a4,a2,20004356 <__udivdi3+0x334>
20004350:	853e                	mv	a0,a5
20004352:	4581                	li	a1,0
20004354:	8082                	ret
20004356:	0342                	slli	t1,t1,0x10
20004358:	01035313          	srli	t1,t1,0x10
2000435c:	06c2                	slli	a3,a3,0x10
2000435e:	01151533          	sll	a0,a0,a7
20004362:	969a                	add	a3,a3,t1
20004364:	fed576e3          	bgeu	a0,a3,20004350 <__udivdi3+0x32e>
20004368:	fff78513          	addi	a0,a5,-1
2000436c:	4581                	li	a1,0
2000436e:	8082                	ret
20004370:	010007b7          	lui	a5,0x1000
20004374:	02f67763          	bgeu	a2,a5,200043a2 <__udivdi3+0x380>
20004378:	01065693          	srli	a3,a2,0x10
2000437c:	4741                	li	a4,16
2000437e:	b3c1                	j	2000413e <__udivdi3+0x11c>
20004380:	4581                	li	a1,0
20004382:	4505                	li	a0,1
20004384:	8082                	ret
20004386:	853a                	mv	a0,a4
20004388:	b5d5                	j	2000426c <__udivdi3+0x24a>
2000438a:	8836                	mv	a6,a3
2000438c:	bfad                	j	20004306 <__udivdi3+0x2e4>
2000438e:	8e2a                	mv	t3,a0
20004390:	bd45                	j	20004240 <__udivdi3+0x21e>
20004392:	87c2                	mv	a5,a6
20004394:	b799                	j	200042da <__udivdi3+0x2b8>
20004396:	1579                	addi	a0,a0,-2
20004398:	97c2                	add	a5,a5,a6
2000439a:	bbdd                	j	20004190 <__udivdi3+0x16e>
2000439c:	1579                	addi	a0,a0,-2
2000439e:	97c2                	add	a5,a5,a6
200043a0:	b311                	j	200040a4 <__udivdi3+0x82>
200043a2:	01865693          	srli	a3,a2,0x18
200043a6:	4761                	li	a4,24
200043a8:	bb59                	j	2000413e <__udivdi3+0x11c>

200043aa <__umoddi3>:
200043aa:	8832                	mv	a6,a2
200043ac:	88aa                	mv	a7,a0
200043ae:	832e                	mv	t1,a1
200043b0:	872e                	mv	a4,a1
200043b2:	e6cd                	bnez	a3,2000445c <__umoddi3+0xb2>
200043b4:	0ec5ff63          	bgeu	a1,a2,200044b2 <__umoddi3+0x108>
200043b8:	67c1                	lui	a5,0x10
200043ba:	18f66263          	bltu	a2,a5,2000453e <__umoddi3+0x194>
200043be:	010007b7          	lui	a5,0x1000
200043c2:	46e1                	li	a3,24
200043c4:	00f67363          	bgeu	a2,a5,200043ca <__umoddi3+0x20>
200043c8:	46c1                	li	a3,16
200043ca:	200077b7          	lui	a5,0x20007
200043ce:	00d65333          	srl	t1,a2,a3
200043d2:	c8c78793          	addi	a5,a5,-884 # 20006c8c <__clz_tab>
200043d6:	979a                	add	a5,a5,t1
200043d8:	0007c783          	lbu	a5,0(a5)
200043dc:	02000313          	li	t1,32
200043e0:	97b6                	add	a5,a5,a3
200043e2:	40f306b3          	sub	a3,t1,a5
200043e6:	00f30b63          	beq	t1,a5,200043fc <__umoddi3+0x52>
200043ea:	00d59733          	sll	a4,a1,a3
200043ee:	00f557b3          	srl	a5,a0,a5
200043f2:	8f5d                	or	a4,a4,a5
200043f4:	00d61833          	sll	a6,a2,a3
200043f8:	00d518b3          	sll	a7,a0,a3
200043fc:	01085593          	srli	a1,a6,0x10
20004400:	02b75633          	divu	a2,a4,a1
20004404:	01081313          	slli	t1,a6,0x10
20004408:	01035313          	srli	t1,t1,0x10
2000440c:	0108d793          	srli	a5,a7,0x10
20004410:	02b77733          	remu	a4,a4,a1
20004414:	02660633          	mul	a2,a2,t1
20004418:	0742                	slli	a4,a4,0x10
2000441a:	8fd9                	or	a5,a5,a4
2000441c:	00c7f763          	bgeu	a5,a2,2000442a <__umoddi3+0x80>
20004420:	97c2                	add	a5,a5,a6
20004422:	0107e463          	bltu	a5,a6,2000442a <__umoddi3+0x80>
20004426:	2ec7e463          	bltu	a5,a2,2000470e <__umoddi3+0x364>
2000442a:	8f91                	sub	a5,a5,a2
2000442c:	02b7d733          	divu	a4,a5,a1
20004430:	01089513          	slli	a0,a7,0x10
20004434:	8141                	srli	a0,a0,0x10
20004436:	02b7f7b3          	remu	a5,a5,a1
2000443a:	02670733          	mul	a4,a4,t1
2000443e:	07c2                	slli	a5,a5,0x10
20004440:	8d5d                	or	a0,a0,a5
20004442:	00e57863          	bgeu	a0,a4,20004452 <__umoddi3+0xa8>
20004446:	9542                	add	a0,a0,a6
20004448:	01056563          	bltu	a0,a6,20004452 <__umoddi3+0xa8>
2000444c:	00e57363          	bgeu	a0,a4,20004452 <__umoddi3+0xa8>
20004450:	9542                	add	a0,a0,a6
20004452:	8d19                	sub	a0,a0,a4
20004454:	00d55533          	srl	a0,a0,a3
20004458:	4581                	li	a1,0
2000445a:	8082                	ret
2000445c:	00d5f363          	bgeu	a1,a3,20004462 <__umoddi3+0xb8>
20004460:	8082                	ret
20004462:	67c1                	lui	a5,0x10
20004464:	16f6eb63          	bltu	a3,a5,200045da <__umoddi3+0x230>
20004468:	010007b7          	lui	a5,0x1000
2000446c:	4861                	li	a6,24
2000446e:	00f6f363          	bgeu	a3,a5,20004474 <__umoddi3+0xca>
20004472:	4841                	li	a6,16
20004474:	200077b7          	lui	a5,0x20007
20004478:	0106d733          	srl	a4,a3,a6
2000447c:	c8c78793          	addi	a5,a5,-884 # 20006c8c <__clz_tab>
20004480:	97ba                	add	a5,a5,a4
20004482:	0007c703          	lbu	a4,0(a5)
20004486:	02000793          	li	a5,32
2000448a:	9742                	add	a4,a4,a6
2000448c:	40e78833          	sub	a6,a5,a4
20004490:	14e79b63          	bne	a5,a4,200045e6 <__umoddi3+0x23c>
20004494:	00b6e463          	bltu	a3,a1,2000449c <__umoddi3+0xf2>
20004498:	00c56a63          	bltu	a0,a2,200044ac <__umoddi3+0x102>
2000449c:	40c508b3          	sub	a7,a0,a2
200044a0:	01153333          	sltu	t1,a0,a7
200044a4:	40d586b3          	sub	a3,a1,a3
200044a8:	40668333          	sub	t1,a3,t1
200044ac:	8546                	mv	a0,a7
200044ae:	859a                	mv	a1,t1
200044b0:	8082                	ret
200044b2:	ce41                	beqz	a2,2000454a <__umoddi3+0x1a0>
200044b4:	67c1                	lui	a5,0x10
200044b6:	24f67063          	bgeu	a2,a5,200046f6 <__umoddi3+0x34c>
200044ba:	10063713          	sltiu	a4,a2,256
200044be:	00173713          	seqz	a4,a4
200044c2:	070e                	slli	a4,a4,0x3
200044c4:	00e656b3          	srl	a3,a2,a4
200044c8:	200077b7          	lui	a5,0x20007
200044cc:	c8c78793          	addi	a5,a5,-884 # 20006c8c <__clz_tab>
200044d0:	97b6                	add	a5,a5,a3
200044d2:	0007c783          	lbu	a5,0(a5)
200044d6:	02000313          	li	t1,32
200044da:	97ba                	add	a5,a5,a4
200044dc:	40f306b3          	sub	a3,t1,a5
200044e0:	08f31563          	bne	t1,a5,2000456a <__umoddi3+0x1c0>
200044e4:	40c58733          	sub	a4,a1,a2
200044e8:	01065313          	srli	t1,a2,0x10
200044ec:	0642                	slli	a2,a2,0x10
200044ee:	8241                	srli	a2,a2,0x10
200044f0:	026755b3          	divu	a1,a4,t1
200044f4:	0108d793          	srli	a5,a7,0x10
200044f8:	02677733          	remu	a4,a4,t1
200044fc:	02c585b3          	mul	a1,a1,a2
20004500:	0742                	slli	a4,a4,0x10
20004502:	8fd9                	or	a5,a5,a4
20004504:	00b7f863          	bgeu	a5,a1,20004514 <__umoddi3+0x16a>
20004508:	97c2                	add	a5,a5,a6
2000450a:	0107e563          	bltu	a5,a6,20004514 <__umoddi3+0x16a>
2000450e:	00b7f363          	bgeu	a5,a1,20004514 <__umoddi3+0x16a>
20004512:	97c2                	add	a5,a5,a6
20004514:	8f8d                	sub	a5,a5,a1
20004516:	0267d733          	divu	a4,a5,t1
2000451a:	08c2                	slli	a7,a7,0x10
2000451c:	0108d893          	srli	a7,a7,0x10
20004520:	0267f7b3          	remu	a5,a5,t1
20004524:	02c70733          	mul	a4,a4,a2
20004528:	01079513          	slli	a0,a5,0x10
2000452c:	00a8e533          	or	a0,a7,a0
20004530:	f0e56be3          	bltu	a0,a4,20004446 <__umoddi3+0x9c>
20004534:	8d19                	sub	a0,a0,a4
20004536:	00d55533          	srl	a0,a0,a3
2000453a:	4581                	li	a1,0
2000453c:	8082                	ret
2000453e:	10063693          	sltiu	a3,a2,256
20004542:	0016b693          	seqz	a3,a3
20004546:	068e                	slli	a3,a3,0x3
20004548:	b549                	j	200043ca <__umoddi3+0x20>
2000454a:	200077b7          	lui	a5,0x20007
2000454e:	4681                	li	a3,0
20004550:	c8c78793          	addi	a5,a5,-884 # 20006c8c <__clz_tab>
20004554:	97b6                	add	a5,a5,a3
20004556:	0007c783          	lbu	a5,0(a5)
2000455a:	4701                	li	a4,0
2000455c:	02000313          	li	t1,32
20004560:	97ba                	add	a5,a5,a4
20004562:	40f306b3          	sub	a3,t1,a5
20004566:	f6f30fe3          	beq	t1,a5,200044e4 <__umoddi3+0x13a>
2000456a:	00d61833          	sll	a6,a2,a3
2000456e:	00f5de33          	srl	t3,a1,a5
20004572:	01085313          	srli	t1,a6,0x10
20004576:	026e5eb3          	divu	t4,t3,t1
2000457a:	01081613          	slli	a2,a6,0x10
2000457e:	00d595b3          	sll	a1,a1,a3
20004582:	00f55733          	srl	a4,a0,a5
20004586:	8241                	srli	a2,a2,0x10
20004588:	8f4d                	or	a4,a4,a1
2000458a:	01075793          	srli	a5,a4,0x10
2000458e:	00d518b3          	sll	a7,a0,a3
20004592:	026e7e33          	remu	t3,t3,t1
20004596:	02ce85b3          	mul	a1,t4,a2
2000459a:	0e42                	slli	t3,t3,0x10
2000459c:	01c7e7b3          	or	a5,a5,t3
200045a0:	00b7f863          	bgeu	a5,a1,200045b0 <__umoddi3+0x206>
200045a4:	97c2                	add	a5,a5,a6
200045a6:	0107e563          	bltu	a5,a6,200045b0 <__umoddi3+0x206>
200045aa:	00b7f363          	bgeu	a5,a1,200045b0 <__umoddi3+0x206>
200045ae:	97c2                	add	a5,a5,a6
200045b0:	8f8d                	sub	a5,a5,a1
200045b2:	0267d5b3          	divu	a1,a5,t1
200045b6:	0742                	slli	a4,a4,0x10
200045b8:	8341                	srli	a4,a4,0x10
200045ba:	0267f7b3          	remu	a5,a5,t1
200045be:	02c585b3          	mul	a1,a1,a2
200045c2:	07c2                	slli	a5,a5,0x10
200045c4:	8f5d                	or	a4,a4,a5
200045c6:	00b77863          	bgeu	a4,a1,200045d6 <__umoddi3+0x22c>
200045ca:	9742                	add	a4,a4,a6
200045cc:	01076563          	bltu	a4,a6,200045d6 <__umoddi3+0x22c>
200045d0:	00b77363          	bgeu	a4,a1,200045d6 <__umoddi3+0x22c>
200045d4:	9742                	add	a4,a4,a6
200045d6:	8f0d                	sub	a4,a4,a1
200045d8:	bf21                	j	200044f0 <__umoddi3+0x146>
200045da:	1006b813          	sltiu	a6,a3,256
200045de:	00183813          	seqz	a6,a6
200045e2:	080e                	slli	a6,a6,0x3
200045e4:	bd41                	j	20004474 <__umoddi3+0xca>
200045e6:	010696b3          	sll	a3,a3,a6
200045ea:	00e658b3          	srl	a7,a2,a4
200045ee:	00d8e8b3          	or	a7,a7,a3
200045f2:	00e5d333          	srl	t1,a1,a4
200045f6:	0108de13          	srli	t3,a7,0x10
200045fa:	03c356b3          	divu	a3,t1,t3
200045fe:	01089e93          	slli	t4,a7,0x10
20004602:	010ede93          	srli	t4,t4,0x10
20004606:	00e557b3          	srl	a5,a0,a4
2000460a:	010595b3          	sll	a1,a1,a6
2000460e:	8ddd                	or	a1,a1,a5
20004610:	0105d793          	srli	a5,a1,0x10
20004614:	01061633          	sll	a2,a2,a6
20004618:	01051533          	sll	a0,a0,a6
2000461c:	03c37333          	remu	t1,t1,t3
20004620:	02de8f33          	mul	t5,t4,a3
20004624:	0342                	slli	t1,t1,0x10
20004626:	0067e7b3          	or	a5,a5,t1
2000462a:	01e7fb63          	bgeu	a5,t5,20004640 <__umoddi3+0x296>
2000462e:	97c6                	add	a5,a5,a7
20004630:	fff68313          	addi	t1,a3,-1
20004634:	0d17eb63          	bltu	a5,a7,2000470a <__umoddi3+0x360>
20004638:	0de7f963          	bgeu	a5,t5,2000470a <__umoddi3+0x360>
2000463c:	16f9                	addi	a3,a3,-2
2000463e:	97c6                	add	a5,a5,a7
20004640:	41e787b3          	sub	a5,a5,t5
20004644:	03c7df33          	divu	t5,a5,t3
20004648:	05c2                	slli	a1,a1,0x10
2000464a:	81c1                	srli	a1,a1,0x10
2000464c:	03c7f7b3          	remu	a5,a5,t3
20004650:	03ee8eb3          	mul	t4,t4,t5
20004654:	07c2                	slli	a5,a5,0x10
20004656:	8fcd                	or	a5,a5,a1
20004658:	01d7fb63          	bgeu	a5,t4,2000466e <__umoddi3+0x2c4>
2000465c:	97c6                	add	a5,a5,a7
2000465e:	ffff0593          	addi	a1,t5,-1
20004662:	0b17e263          	bltu	a5,a7,20004706 <__umoddi3+0x35c>
20004666:	0bd7f063          	bgeu	a5,t4,20004706 <__umoddi3+0x35c>
2000466a:	1f79                	addi	t5,t5,-2
2000466c:	97c6                	add	a5,a5,a7
2000466e:	06c2                	slli	a3,a3,0x10
20004670:	010f1e13          	slli	t3,t5,0x10
20004674:	01e6e6b3          	or	a3,a3,t5
20004678:	01061313          	slli	t1,a2,0x10
2000467c:	010e5e13          	srli	t3,t3,0x10
20004680:	01035313          	srli	t1,t1,0x10
20004684:	82c1                	srli	a3,a3,0x10
20004686:	01065f13          	srli	t5,a2,0x10
2000468a:	02668fb3          	mul	t6,a3,t1
2000468e:	41d785b3          	sub	a1,a5,t4
20004692:	026e0333          	mul	t1,t3,t1
20004696:	03ee0e33          	mul	t3,t3,t5
2000469a:	01035793          	srli	a5,t1,0x10
2000469e:	9e7e                	add	t3,t3,t6
200046a0:	97f2                	add	a5,a5,t3
200046a2:	03e686b3          	mul	a3,a3,t5
200046a6:	01f7f463          	bgeu	a5,t6,200046ae <__umoddi3+0x304>
200046aa:	6e41                	lui	t3,0x10
200046ac:	96f2                	add	a3,a3,t3
200046ae:	0107de13          	srli	t3,a5,0x10
200046b2:	0342                	slli	t1,t1,0x10
200046b4:	01035313          	srli	t1,t1,0x10
200046b8:	07c2                	slli	a5,a5,0x10
200046ba:	96f2                	add	a3,a3,t3
200046bc:	979a                	add	a5,a5,t1
200046be:	02d5e463          	bltu	a1,a3,200046e6 <__umoddi3+0x33c>
200046c2:	02d58063          	beq	a1,a3,200046e2 <__umoddi3+0x338>
200046c6:	40f507b3          	sub	a5,a0,a5
200046ca:	00f53533          	sltu	a0,a0,a5
200046ce:	8d95                	sub	a1,a1,a3
200046d0:	8d89                	sub	a1,a1,a0
200046d2:	00e59733          	sll	a4,a1,a4
200046d6:	0107d533          	srl	a0,a5,a6
200046da:	0105d5b3          	srl	a1,a1,a6
200046de:	8d59                	or	a0,a0,a4
200046e0:	8082                	ret
200046e2:	fef572e3          	bgeu	a0,a5,200046c6 <__umoddi3+0x31c>
200046e6:	40c78633          	sub	a2,a5,a2
200046ea:	00c7b7b3          	sltu	a5,a5,a2
200046ee:	97c6                	add	a5,a5,a7
200046f0:	8e9d                	sub	a3,a3,a5
200046f2:	87b2                	mv	a5,a2
200046f4:	bfc9                	j	200046c6 <__umoddi3+0x31c>
200046f6:	010007b7          	lui	a5,0x1000
200046fa:	00f67c63          	bgeu	a2,a5,20004712 <__umoddi3+0x368>
200046fe:	01065693          	srli	a3,a2,0x10
20004702:	4741                	li	a4,16
20004704:	b3d1                	j	200044c8 <__umoddi3+0x11e>
20004706:	8f2e                	mv	t5,a1
20004708:	b79d                	j	2000466e <__umoddi3+0x2c4>
2000470a:	869a                	mv	a3,t1
2000470c:	bf15                	j	20004640 <__umoddi3+0x296>
2000470e:	97c2                	add	a5,a5,a6
20004710:	bb29                	j	2000442a <__umoddi3+0x80>
20004712:	01865693          	srli	a3,a2,0x18
20004716:	4761                	li	a4,24
20004718:	bb45                	j	200044c8 <__umoddi3+0x11e>

2000471a <__adddf3>:
2000471a:	00100337          	lui	t1,0x100
2000471e:	1101                	addi	sp,sp,-32
20004720:	137d                	addi	t1,t1,-1 # fffff <HeapSize+0xff7ff>
20004722:	0146d713          	srli	a4,a3,0x14
20004726:	00b377b3          	and	a5,t1,a1
2000472a:	00d37833          	and	a6,t1,a3
2000472e:	c256                	sw	s5,4(sp)
20004730:	0145da93          	srli	s5,a1,0x14
20004734:	078e                	slli	a5,a5,0x3
20004736:	ca26                	sw	s1,20(sp)
20004738:	c452                	sw	s4,8(sp)
2000473a:	7ffafa93          	andi	s5,s5,2047
2000473e:	01d55a13          	srli	s4,a0,0x1d
20004742:	01f5d493          	srli	s1,a1,0x1f
20004746:	080e                	slli	a6,a6,0x3
20004748:	7ff77593          	andi	a1,a4,2047
2000474c:	ce06                	sw	ra,28(sp)
2000474e:	01d65713          	srli	a4,a2,0x1d
20004752:	cc22                	sw	s0,24(sp)
20004754:	c84a                	sw	s2,16(sp)
20004756:	c64e                	sw	s3,12(sp)
20004758:	82fd                	srli	a3,a3,0x1f
2000475a:	00fa6a33          	or	s4,s4,a5
2000475e:	88b2                	mv	a7,a2
20004760:	40ba87b3          	sub	a5,s5,a1
20004764:	01076733          	or	a4,a4,a6
20004768:	00351e13          	slli	t3,a0,0x3
2000476c:	00361e93          	slli	t4,a2,0x3
20004770:	0ed48963          	beq	s1,a3,20004862 <__adddf3+0x148>
20004774:	04f05563          	blez	a5,200047be <__adddf3+0xa4>
20004778:	16059263          	bnez	a1,200048dc <__adddf3+0x1c2>
2000477c:	01d766b3          	or	a3,a4,t4
20004780:	30068163          	beqz	a3,20004a82 <__adddf3+0x368>
20004784:	fff78693          	addi	a3,a5,-1 # ffffff <HeapSize+0xfff7ff>
20004788:	62068c63          	beqz	a3,20004dc0 <__adddf3+0x6a6>
2000478c:	7ff00613          	li	a2,2047
20004790:	3ac78663          	beq	a5,a2,20004b3c <__adddf3+0x422>
20004794:	03800613          	li	a2,56
20004798:	56d65f63          	bge	a2,a3,20004d16 <__adddf3+0x5fc>
2000479c:	fffe0413          	addi	s0,t3,-1 # ffff <HeapSize+0xf7ff>
200047a0:	008e3e33          	sltu	t3,t3,s0
200047a4:	41ca0a33          	sub	s4,s4,t3
200047a8:	008a1693          	slli	a3,s4,0x8
200047ac:	00800737          	lui	a4,0x800
200047b0:	8abe                	mv	s5,a5
200047b2:	0406da63          	bgez	a3,20004806 <__adddf3+0xec>
200047b6:	fff70a13          	addi	s4,a4,-1 # 7fffff <HeapSize+0x7ff7ff>
200047ba:	547d                	li	s0,-1
200047bc:	a2b9                	j	2000490a <__adddf3+0x1f0>
200047be:	1a078463          	beqz	a5,20004966 <__adddf3+0x24c>
200047c2:	415587b3          	sub	a5,a1,s5
200047c6:	3c0a9d63          	bnez	s5,20004ba0 <__adddf3+0x486>
200047ca:	01ca6633          	or	a2,s4,t3
200047ce:	58060063          	beqz	a2,20004d4e <__adddf3+0x634>
200047d2:	fff78613          	addi	a2,a5,-1
200047d6:	6a060763          	beqz	a2,20004e84 <__adddf3+0x76a>
200047da:	7ff00513          	li	a0,2047
200047de:	62a78f63          	beq	a5,a0,20004e1c <__adddf3+0x702>
200047e2:	03800513          	li	a0,56
200047e6:	74c55663          	bge	a0,a2,20004f32 <__adddf3+0x818>
200047ea:	fffe8413          	addi	s0,t4,-1
200047ee:	008ebeb3          	sltu	t4,t4,s0
200047f2:	41d70a33          	sub	s4,a4,t4
200047f6:	008a1613          	slli	a2,s4,0x8
200047fa:	00800737          	lui	a4,0x800
200047fe:	7c064163          	bltz	a2,20004fc0 <__adddf3+0x8a6>
20004802:	84b6                	mv	s1,a3
20004804:	8abe                	mv	s5,a5
20004806:	00440793          	addi	a5,s0,4
2000480a:	0087b433          	sltu	s0,a5,s0
2000480e:	9a22                	add	s4,s4,s0
20004810:	843e                	mv	s0,a5
20004812:	008a1793          	slli	a5,s4,0x8
20004816:	2007dd63          	bgez	a5,20004a30 <__adddf3+0x316>
2000481a:	001a8793          	addi	a5,s5,1
2000481e:	7ff00713          	li	a4,2047
20004822:	8826                	mv	a6,s1
20004824:	20e78a63          	beq	a5,a4,20004a38 <__adddf3+0x31e>
20004828:	ff800737          	lui	a4,0xff800
2000482c:	177d                	addi	a4,a4,-1 # ff7fffff <__StackTop+0xdf77dfff>
2000482e:	7ff7f793          	andi	a5,a5,2047
20004832:	00ea7733          	and	a4,s4,a4
20004836:	01d71613          	slli	a2,a4,0x1d
2000483a:	800d                	srli	s0,s0,0x3
2000483c:	0726                	slli	a4,a4,0x9
2000483e:	8e41                	or	a2,a2,s0
20004840:	8331                	srli	a4,a4,0xc
20004842:	40f2                	lw	ra,28(sp)
20004844:	4462                	lw	s0,24(sp)
20004846:	07d2                	slli	a5,a5,0x14
20004848:	8fd9                	or	a5,a5,a4
2000484a:	01f81713          	slli	a4,a6,0x1f
2000484e:	8fd9                	or	a5,a5,a4
20004850:	44d2                	lw	s1,20(sp)
20004852:	4942                	lw	s2,16(sp)
20004854:	49b2                	lw	s3,12(sp)
20004856:	4a22                	lw	s4,8(sp)
20004858:	4a92                	lw	s5,4(sp)
2000485a:	8532                	mv	a0,a2
2000485c:	85be                	mv	a1,a5
2000485e:	6105                	addi	sp,sp,32
20004860:	8082                	ret
20004862:	8826                	mv	a6,s1
20004864:	1cf05d63          	blez	a5,20004a3e <__adddf3+0x324>
20004868:	16059263          	bnez	a1,200049cc <__adddf3+0x2b2>
2000486c:	01d766b3          	or	a3,a4,t4
20004870:	20068963          	beqz	a3,20004a82 <__adddf3+0x368>
20004874:	fff78693          	addi	a3,a5,-1
20004878:	4e068e63          	beqz	a3,20004d74 <__adddf3+0x65a>
2000487c:	7ff00613          	li	a2,2047
20004880:	5ac78963          	beq	a5,a2,20004e32 <__adddf3+0x718>
20004884:	03800613          	li	a2,56
20004888:	62d65c63          	bge	a2,a3,20004ec0 <__adddf3+0x7a6>
2000488c:	008a1693          	slli	a3,s4,0x8
20004890:	00800737          	lui	a4,0x800
20004894:	001e0413          	addi	s0,t3,1
20004898:	8abe                	mv	s5,a5
2000489a:	f606d6e3          	bgez	a3,20004806 <__adddf3+0xec>
2000489e:	8a3a                	mv	s4,a4
200048a0:	4401                	li	s0,0
200048a2:	0a85                	addi	s5,s5,1
200048a4:	7ff00793          	li	a5,2047
200048a8:	18fa8763          	beq	s5,a5,20004a36 <__adddf3+0x31c>
200048ac:	ff8007b7          	lui	a5,0xff800
200048b0:	17fd                	addi	a5,a5,-1 # ff7fffff <__StackTop+0xdf77dfff>
200048b2:	00fa77b3          	and	a5,s4,a5
200048b6:	00145713          	srli	a4,s0,0x1
200048ba:	8805                	andi	s0,s0,1
200048bc:	01f79693          	slli	a3,a5,0x1f
200048c0:	8f41                	or	a4,a4,s0
200048c2:	0017da13          	srli	s4,a5,0x1
200048c6:	00e6e433          	or	s0,a3,a4
200048ca:	00747793          	andi	a5,s0,7
200048ce:	d3b1                	beqz	a5,20004812 <__adddf3+0xf8>
200048d0:	00f47793          	andi	a5,s0,15
200048d4:	4711                	li	a4,4
200048d6:	f2e78ee3          	beq	a5,a4,20004812 <__adddf3+0xf8>
200048da:	b735                	j	20004806 <__adddf3+0xec>
200048dc:	7ff00693          	li	a3,2047
200048e0:	24da8e63          	beq	s5,a3,20004b3c <__adddf3+0x422>
200048e4:	03800693          	li	a3,56
200048e8:	1cf6d263          	bge	a3,a5,20004aac <__adddf3+0x392>
200048ec:	fffe0413          	addi	s0,t3,-1
200048f0:	008e3e33          	sltu	t3,t3,s0
200048f4:	41ca0a33          	sub	s4,s4,t3
200048f8:	008a1713          	slli	a4,s4,0x8
200048fc:	008007b7          	lui	a5,0x800
20004900:	f00753e3          	bgez	a4,20004806 <__adddf3+0xec>
20004904:	fff78a13          	addi	s4,a5,-1 # 7fffff <HeapSize+0x7ff7ff>
20004908:	547d                	li	s0,-1
2000490a:	8552                	mv	a0,s4
2000490c:	619010ef          	jal	20006724 <__clzsi2>
20004910:	ff850793          	addi	a5,a0,-8
20004914:	02000713          	li	a4,32
20004918:	40f706b3          	sub	a3,a4,a5
2000491c:	00d456b3          	srl	a3,s0,a3
20004920:	00fa1a33          	sll	s4,s4,a5
20004924:	0146e6b3          	or	a3,a3,s4
20004928:	00f41433          	sll	s0,s0,a5
2000492c:	2f57c763          	blt	a5,s5,20004c1a <__adddf3+0x500>
20004930:	415787b3          	sub	a5,a5,s5
20004934:	0785                	addi	a5,a5,1
20004936:	8f1d                	sub	a4,a4,a5
20004938:	00e41633          	sll	a2,s0,a4
2000493c:	00c03633          	snez	a2,a2
20004940:	00f45a33          	srl	s4,s0,a5
20004944:	01466633          	or	a2,a2,s4
20004948:	00e69733          	sll	a4,a3,a4
2000494c:	00c76433          	or	s0,a4,a2
20004950:	00f6da33          	srl	s4,a3,a5
20004954:	014467b3          	or	a5,s0,s4
20004958:	4a81                	li	s5,0
2000495a:	fba5                	bnez	a5,200048ca <__adddf3+0x1b0>
2000495c:	8826                	mv	a6,s1
2000495e:	4781                	li	a5,0
20004960:	4701                	li	a4,0
20004962:	4601                	li	a2,0
20004964:	bdf9                	j	20004842 <__adddf3+0x128>
20004966:	001a8793          	addi	a5,s5,1
2000496a:	7fe7f793          	andi	a5,a5,2046
2000496e:	28079263          	bnez	a5,20004bf2 <__adddf3+0x4d8>
20004972:	01ca67b3          	or	a5,s4,t3
20004976:	01d76633          	or	a2,a4,t4
2000497a:	3e0a9163          	bnez	s5,20004d5c <__adddf3+0x642>
2000497e:	52078b63          	beqz	a5,20004eb4 <__adddf3+0x79a>
20004982:	20060563          	beqz	a2,20004b8c <__adddf3+0x472>
20004986:	41de05b3          	sub	a1,t3,t4
2000498a:	00be3633          	sltu	a2,t3,a1
2000498e:	40ea07b3          	sub	a5,s4,a4
20004992:	8f91                	sub	a5,a5,a2
20004994:	00879613          	slli	a2,a5,0x8
20004998:	5c065f63          	bgez	a2,20004f76 <__adddf3+0x85c>
2000499c:	41ce8e33          	sub	t3,t4,t3
200049a0:	01cebeb3          	sltu	t4,t4,t3
200049a4:	41470733          	sub	a4,a4,s4
200049a8:	41d70733          	sub	a4,a4,t4
200049ac:	00ee67b3          	or	a5,t3,a4
200049b0:	8472                	mv	s0,t3
200049b2:	84b6                	mv	s1,a3
200049b4:	d7c5                	beqz	a5,2000495c <__adddf3+0x242>
200049b6:	00871793          	slli	a5,a4,0x8
200049ba:	6007d763          	bgez	a5,20004fc8 <__adddf3+0x8ae>
200049be:	ff8007b7          	lui	a5,0xff800
200049c2:	17fd                	addi	a5,a5,-1 # ff7fffff <__StackTop+0xdf77dfff>
200049c4:	8f7d                	and	a4,a4,a5
200049c6:	8836                	mv	a6,a3
200049c8:	4785                	li	a5,1
200049ca:	b5b5                	j	20004836 <__adddf3+0x11c>
200049cc:	7ff00693          	li	a3,2047
200049d0:	16da8663          	beq	s5,a3,20004b3c <__adddf3+0x422>
200049d4:	03800693          	li	a3,56
200049d8:	2cf6c263          	blt	a3,a5,20004c9c <__adddf3+0x582>
200049dc:	008006b7          	lui	a3,0x800
200049e0:	8f55                	or	a4,a4,a3
200049e2:	46fd                	li	a3,31
200049e4:	40f6c863          	blt	a3,a5,20004df4 <__adddf3+0x6da>
200049e8:	02000613          	li	a2,32
200049ec:	8e1d                	sub	a2,a2,a5
200049ee:	00c716b3          	sll	a3,a4,a2
200049f2:	00ce9633          	sll	a2,t4,a2
200049f6:	00fedeb3          	srl	t4,t4,a5
200049fa:	00f75733          	srl	a4,a4,a5
200049fe:	00c03633          	snez	a2,a2
20004a02:	01d6e6b3          	or	a3,a3,t4
20004a06:	00c6e7b3          	or	a5,a3,a2
20004a0a:	9a3a                	add	s4,s4,a4
20004a0c:	9e3e                	add	t3,t3,a5
20004a0e:	00fe37b3          	sltu	a5,t3,a5
20004a12:	9a3e                	add	s4,s4,a5
20004a14:	8472                	mv	s0,t3
20004a16:	008a1793          	slli	a5,s4,0x8
20004a1a:	e807c4e3          	bltz	a5,200048a2 <__adddf3+0x188>
20004a1e:	00747793          	andi	a5,s0,7
20004a22:	5a078c63          	beqz	a5,20004fda <__adddf3+0x8c0>
20004a26:	00f47793          	andi	a5,s0,15
20004a2a:	4711                	li	a4,4
20004a2c:	dce79de3          	bne	a5,a4,20004806 <__adddf3+0xec>
20004a30:	87d6                	mv	a5,s5
20004a32:	800d                	srli	s0,s0,0x3
20004a34:	a891                	j	20004a88 <__adddf3+0x36e>
20004a36:	87d6                	mv	a5,s5
20004a38:	4701                	li	a4,0
20004a3a:	4601                	li	a2,0
20004a3c:	b519                	j	20004842 <__adddf3+0x128>
20004a3e:	10078963          	beqz	a5,20004b50 <__adddf3+0x436>
20004a42:	415587b3          	sub	a5,a1,s5
20004a46:	260a9463          	bnez	s5,20004cae <__adddf3+0x594>
20004a4a:	01ca66b3          	or	a3,s4,t3
20004a4e:	4c068d63          	beqz	a3,20004f28 <__adddf3+0x80e>
20004a52:	fff78693          	addi	a3,a5,-1
20004a56:	30068f63          	beqz	a3,20004d74 <__adddf3+0x65a>
20004a5a:	7ff00613          	li	a2,2047
20004a5e:	3ec78463          	beq	a5,a2,20004e46 <__adddf3+0x72c>
20004a62:	03800613          	li	a2,56
20004a66:	52d65b63          	bge	a2,a3,20004f9c <__adddf3+0x882>
20004a6a:	00871693          	slli	a3,a4,0x8
20004a6e:	00800a37          	lui	s4,0x800
20004a72:	8abe                	mv	s5,a5
20004a74:	4401                	li	s0,0
20004a76:	e206c6e3          	bltz	a3,200048a2 <__adddf3+0x188>
20004a7a:	001e8413          	addi	s0,t4,1
20004a7e:	8a3a                	mv	s4,a4
20004a80:	b359                	j	20004806 <__adddf3+0xec>
20004a82:	00351413          	slli	s0,a0,0x3
20004a86:	800d                	srli	s0,s0,0x3
20004a88:	01da1613          	slli	a2,s4,0x1d
20004a8c:	7ff00693          	li	a3,2047
20004a90:	8e41                	or	a2,a2,s0
20004a92:	003a5713          	srli	a4,s4,0x3
20004a96:	08d79863          	bne	a5,a3,20004b26 <__adddf3+0x40c>
20004a9a:	8e59                	or	a2,a2,a4
20004a9c:	ca59                	beqz	a2,20004b32 <__adddf3+0x418>
20004a9e:	4801                	li	a6,0
20004aa0:	7ff00793          	li	a5,2047
20004aa4:	00080737          	lui	a4,0x80
20004aa8:	4601                	li	a2,0
20004aaa:	bb61                	j	20004842 <__adddf3+0x128>
20004aac:	008006b7          	lui	a3,0x800
20004ab0:	8f55                	or	a4,a4,a3
20004ab2:	46fd                	li	a3,31
20004ab4:	18f6c063          	blt	a3,a5,20004c34 <__adddf3+0x51a>
20004ab8:	02000693          	li	a3,32
20004abc:	8e9d                	sub	a3,a3,a5
20004abe:	00d71433          	sll	s0,a4,a3
20004ac2:	00de96b3          	sll	a3,t4,a3
20004ac6:	00fedeb3          	srl	t4,t4,a5
20004aca:	00d036b3          	snez	a3,a3
20004ace:	01d46433          	or	s0,s0,t4
20004ad2:	00f75733          	srl	a4,a4,a5
20004ad6:	8c55                	or	s0,s0,a3
20004ad8:	40ea0a33          	sub	s4,s4,a4
20004adc:	408e0433          	sub	s0,t3,s0
20004ae0:	008e3e33          	sltu	t3,t3,s0
20004ae4:	41ca0a33          	sub	s4,s4,t3
20004ae8:	008a1793          	slli	a5,s4,0x8
20004aec:	f207d9e3          	bgez	a5,20004a1e <__adddf3+0x304>
20004af0:	0a26                	slli	s4,s4,0x9
20004af2:	009a5a13          	srli	s4,s4,0x9
20004af6:	e00a1ae3          	bnez	s4,2000490a <__adddf3+0x1f0>
20004afa:	8522                	mv	a0,s0
20004afc:	429010ef          	jal	20006724 <__clzsi2>
20004b00:	01850793          	addi	a5,a0,24
20004b04:	477d                	li	a4,31
20004b06:	e0f757e3          	bge	a4,a5,20004914 <__adddf3+0x1fa>
20004b0a:	1561                	addi	a0,a0,-8
20004b0c:	00a416b3          	sll	a3,s0,a0
20004b10:	1557d663          	bge	a5,s5,20004c5c <__adddf3+0x542>
20004b14:	ff800737          	lui	a4,0xff800
20004b18:	177d                	addi	a4,a4,-1 # ff7fffff <__StackTop+0xdf77dfff>
20004b1a:	8f75                	and	a4,a4,a3
20004b1c:	01d71613          	slli	a2,a4,0x1d
20004b20:	40fa87b3          	sub	a5,s5,a5
20004b24:	830d                	srli	a4,a4,0x3
20004b26:	0732                	slli	a4,a4,0xc
20004b28:	8331                	srli	a4,a4,0xc
20004b2a:	7ff7f793          	andi	a5,a5,2047
20004b2e:	8826                	mv	a6,s1
20004b30:	bb09                	j	20004842 <__adddf3+0x128>
20004b32:	8826                	mv	a6,s1
20004b34:	7ff00793          	li	a5,2047
20004b38:	4701                	li	a4,0
20004b3a:	b321                	j	20004842 <__adddf3+0x128>
20004b3c:	00351413          	slli	s0,a0,0x3
20004b40:	00345513          	srli	a0,s0,0x3
20004b44:	01da1613          	slli	a2,s4,0x1d
20004b48:	8e49                	or	a2,a2,a0
20004b4a:	003a5713          	srli	a4,s4,0x3
20004b4e:	b7b1                	j	20004a9a <__adddf3+0x380>
20004b50:	001a8793          	addi	a5,s5,1
20004b54:	7fe7f693          	andi	a3,a5,2046
20004b58:	16069f63          	bnez	a3,20004cd6 <__adddf3+0x5bc>
20004b5c:	01ca67b3          	or	a5,s4,t3
20004b60:	3a0a9e63          	bnez	s5,20004f1c <__adddf3+0x802>
20004b64:	01d766b3          	or	a3,a4,t4
20004b68:	40078063          	beqz	a5,20004f68 <__adddf3+0x84e>
20004b6c:	c285                	beqz	a3,20004b8c <__adddf3+0x472>
20004b6e:	9ef2                	add	t4,t4,t3
20004b70:	01cebe33          	sltu	t3,t4,t3
20004b74:	9752                	add	a4,a4,s4
20004b76:	01c70a33          	add	s4,a4,t3
20004b7a:	008a1793          	slli	a5,s4,0x8
20004b7e:	8e76                	mv	t3,t4
20004b80:	4207c063          	bltz	a5,20004fa0 <__adddf3+0x886>
20004b84:	014ee7b3          	or	a5,t4,s4
20004b88:	dc078ae3          	beqz	a5,2000495c <__adddf3+0x242>
20004b8c:	003e5e13          	srli	t3,t3,0x3
20004b90:	01da1613          	slli	a2,s4,0x1d
20004b94:	01c66633          	or	a2,a2,t3
20004b98:	003a5713          	srli	a4,s4,0x3
20004b9c:	4781                	li	a5,0
20004b9e:	b761                	j	20004b26 <__adddf3+0x40c>
20004ba0:	7ff00613          	li	a2,2047
20004ba4:	26c58c63          	beq	a1,a2,20004e1c <__adddf3+0x702>
20004ba8:	03800613          	li	a2,56
20004bac:	16f64763          	blt	a2,a5,20004d1a <__adddf3+0x600>
20004bb0:	00800637          	lui	a2,0x800
20004bb4:	00ca6a33          	or	s4,s4,a2
20004bb8:	467d                	li	a2,31
20004bba:	28f64e63          	blt	a2,a5,20004e56 <__adddf3+0x73c>
20004bbe:	02000613          	li	a2,32
20004bc2:	8e1d                	sub	a2,a2,a5
20004bc4:	00ca1433          	sll	s0,s4,a2
20004bc8:	00ce1633          	sll	a2,t3,a2
20004bcc:	00fe5e33          	srl	t3,t3,a5
20004bd0:	00c03633          	snez	a2,a2
20004bd4:	01c46433          	or	s0,s0,t3
20004bd8:	00fa57b3          	srl	a5,s4,a5
20004bdc:	8c51                	or	s0,s0,a2
20004bde:	8f1d                	sub	a4,a4,a5
20004be0:	408e8433          	sub	s0,t4,s0
20004be4:	008ebeb3          	sltu	t4,t4,s0
20004be8:	41d70a33          	sub	s4,a4,t4
20004bec:	8aae                	mv	s5,a1
20004bee:	84b6                	mv	s1,a3
20004bf0:	bde5                	j	20004ae8 <__adddf3+0x3ce>
20004bf2:	41de0433          	sub	s0,t3,t4
20004bf6:	008e3633          	sltu	a2,t3,s0
20004bfa:	40ea07b3          	sub	a5,s4,a4
20004bfe:	8f91                	sub	a5,a5,a2
20004c00:	00879613          	slli	a2,a5,0x8
20004c04:	12064a63          	bltz	a2,20004d38 <__adddf3+0x61e>
20004c08:	00f46633          	or	a2,s0,a5
20004c0c:	8a3e                	mv	s4,a5
20004c0e:	ee0614e3          	bnez	a2,20004af6 <__adddf3+0x3dc>
20004c12:	4801                	li	a6,0
20004c14:	4781                	li	a5,0
20004c16:	4701                	li	a4,0
20004c18:	b12d                	j	20004842 <__adddf3+0x128>
20004c1a:	ff800a37          	lui	s4,0xff800
20004c1e:	1a7d                	addi	s4,s4,-1 # ff7fffff <__StackTop+0xdf77dfff>
20004c20:	00747713          	andi	a4,s0,7
20004c24:	40fa8ab3          	sub	s5,s5,a5
20004c28:	0146fa33          	and	s4,a3,s4
20004c2c:	de071de3          	bnez	a4,20004a26 <__adddf3+0x30c>
20004c30:	87d6                	mv	a5,s5
20004c32:	b501                	j	20004a32 <__adddf3+0x318>
20004c34:	fe078693          	addi	a3,a5,-32
20004c38:	02000613          	li	a2,32
20004c3c:	00d756b3          	srl	a3,a4,a3
20004c40:	00c78a63          	beq	a5,a2,20004c54 <__adddf3+0x53a>
20004c44:	04000613          	li	a2,64
20004c48:	40f607b3          	sub	a5,a2,a5
20004c4c:	00f717b3          	sll	a5,a4,a5
20004c50:	00feeeb3          	or	t4,t4,a5
20004c54:	01d03433          	snez	s0,t4
20004c58:	8c55                	or	s0,s0,a3
20004c5a:	b549                	j	20004adc <__adddf3+0x3c2>
20004c5c:	41578433          	sub	s0,a5,s5
20004c60:	00140793          	addi	a5,s0,1
20004c64:	2ef75d63          	bge	a4,a5,20004f5e <__adddf3+0x844>
20004c68:	1405                	addi	s0,s0,-31
20004c6a:	02000713          	li	a4,32
20004c6e:	0086d433          	srl	s0,a3,s0
20004c72:	00e78b63          	beq	a5,a4,20004c88 <__adddf3+0x56e>
20004c76:	04000713          	li	a4,64
20004c7a:	40f707b3          	sub	a5,a4,a5
20004c7e:	00f697b3          	sll	a5,a3,a5
20004c82:	00f037b3          	snez	a5,a5
20004c86:	8c5d                	or	s0,s0,a5
20004c88:	cc040ae3          	beqz	s0,2000495c <__adddf3+0x242>
20004c8c:	00747793          	andi	a5,s0,7
20004c90:	4a81                	li	s5,0
20004c92:	c2079fe3          	bnez	a5,200048d0 <__adddf3+0x1b6>
20004c96:	4a01                	li	s4,0
20004c98:	800d                	srli	s0,s0,0x3
20004c9a:	b3fd                	j	20004a88 <__adddf3+0x36e>
20004c9c:	008a1713          	slli	a4,s4,0x8
20004ca0:	008007b7          	lui	a5,0x800
20004ca4:	1c075d63          	bgez	a4,20004e7e <__adddf3+0x764>
20004ca8:	8a3e                	mv	s4,a5
20004caa:	4401                	li	s0,0
20004cac:	bedd                	j	200048a2 <__adddf3+0x188>
20004cae:	7ff00693          	li	a3,2047
20004cb2:	18d58a63          	beq	a1,a3,20004e46 <__adddf3+0x72c>
20004cb6:	03800693          	li	a3,56
20004cba:	20f6d563          	bge	a3,a5,20004ec4 <__adddf3+0x7aa>
20004cbe:	00871793          	slli	a5,a4,0x8
20004cc2:	00800a37          	lui	s4,0x800
20004cc6:	8aae                	mv	s5,a1
20004cc8:	4401                	li	s0,0
20004cca:	bc07cce3          	bltz	a5,200048a2 <__adddf3+0x188>
20004cce:	001e8413          	addi	s0,t4,1
20004cd2:	8a3a                	mv	s4,a4
20004cd4:	be0d                	j	20004806 <__adddf3+0xec>
20004cd6:	7ff00693          	li	a3,2047
20004cda:	d4d78fe3          	beq	a5,a3,20004a38 <__adddf3+0x31e>
20004cde:	9ef2                	add	t4,t4,t3
20004ce0:	01cebe33          	sltu	t3,t4,t3
20004ce4:	9752                	add	a4,a4,s4
20004ce6:	9772                	add	a4,a4,t3
20004ce8:	001ede93          	srli	t4,t4,0x1
20004cec:	01f71413          	slli	s0,a4,0x1f
20004cf0:	007ef693          	andi	a3,t4,7
20004cf4:	01d46433          	or	s0,s0,t4
20004cf8:	00175a13          	srli	s4,a4,0x1
20004cfc:	c699                	beqz	a3,20004d0a <__adddf3+0x5f0>
20004cfe:	00f47693          	andi	a3,s0,15
20004d02:	4611                	li	a2,4
20004d04:	8abe                	mv	s5,a5
20004d06:	b0c690e3          	bne	a3,a2,20004806 <__adddf3+0xec>
20004d0a:	800d                	srli	s0,s0,0x3
20004d0c:	01da1613          	slli	a2,s4,0x1d
20004d10:	8e41                	or	a2,a2,s0
20004d12:	8311                	srli	a4,a4,0x4
20004d14:	bd09                	j	20004b26 <__adddf3+0x40c>
20004d16:	87b6                	mv	a5,a3
20004d18:	bb69                	j	20004ab2 <__adddf3+0x398>
20004d1a:	fffe8413          	addi	s0,t4,-1
20004d1e:	008ebeb3          	sltu	t4,t4,s0
20004d22:	41d70a33          	sub	s4,a4,t4
20004d26:	008a1713          	slli	a4,s4,0x8
20004d2a:	008007b7          	lui	a5,0x800
20004d2e:	1c074b63          	bltz	a4,20004f04 <__adddf3+0x7ea>
20004d32:	84b6                	mv	s1,a3
20004d34:	8aae                	mv	s5,a1
20004d36:	bcc1                	j	20004806 <__adddf3+0xec>
20004d38:	41ce8e33          	sub	t3,t4,t3
20004d3c:	01cebeb3          	sltu	t4,t4,t3
20004d40:	41470733          	sub	a4,a4,s4
20004d44:	8472                	mv	s0,t3
20004d46:	41d70a33          	sub	s4,a4,t4
20004d4a:	84b6                	mv	s1,a3
20004d4c:	b36d                	j	20004af6 <__adddf3+0x3dc>
20004d4e:	00389613          	slli	a2,a7,0x3
20004d52:	00365413          	srli	s0,a2,0x3
20004d56:	84b6                	mv	s1,a3
20004d58:	8a3a                	mv	s4,a4
20004d5a:	b33d                	j	20004a88 <__adddf3+0x36e>
20004d5c:	ebe9                	bnez	a5,20004e2e <__adddf3+0x714>
20004d5e:	22060963          	beqz	a2,20004f90 <__adddf3+0x876>
20004d62:	00389613          	slli	a2,a7,0x3
20004d66:	01d71793          	slli	a5,a4,0x1d
20004d6a:	820d                	srli	a2,a2,0x3
20004d6c:	84b6                	mv	s1,a3
20004d6e:	8e5d                	or	a2,a2,a5
20004d70:	830d                	srli	a4,a4,0x3
20004d72:	b325                	j	20004a9a <__adddf3+0x380>
20004d74:	9ef2                	add	t4,t4,t3
20004d76:	01cebe33          	sltu	t3,t4,t3
20004d7a:	9752                	add	a4,a4,s4
20004d7c:	9772                	add	a4,a4,t3
20004d7e:	00871793          	slli	a5,a4,0x8
20004d82:	1807d463          	bgez	a5,20004f0a <__adddf3+0x7f0>
20004d86:	ff8007b7          	lui	a5,0xff800
20004d8a:	17fd                	addi	a5,a5,-1 # ff7fffff <__StackTop+0xdf77dfff>
20004d8c:	001ed693          	srli	a3,t4,0x1
20004d90:	8f7d                	and	a4,a4,a5
20004d92:	01f71793          	slli	a5,a4,0x1f
20004d96:	0076f593          	andi	a1,a3,7
20004d9a:	8fd5                	or	a5,a5,a3
20004d9c:	00175613          	srli	a2,a4,0x1
20004da0:	1e058263          	beqz	a1,20004f84 <__adddf3+0x86a>
20004da4:	00f7f693          	andi	a3,a5,15
20004da8:	4591                	li	a1,4
20004daa:	1cb68d63          	beq	a3,a1,20004f84 <__adddf3+0x86a>
20004dae:	00b78433          	add	s0,a5,a1
20004db2:	00f437b3          	sltu	a5,s0,a5
20004db6:	00c78a33          	add	s4,a5,a2
20004dba:	800d                	srli	s0,s0,0x3
20004dbc:	4789                	li	a5,2
20004dbe:	b1e9                	j	20004a88 <__adddf3+0x36e>
20004dc0:	41de0eb3          	sub	t4,t3,t4
20004dc4:	01de3e33          	sltu	t3,t3,t4
20004dc8:	40ea0733          	sub	a4,s4,a4
20004dcc:	41c70a33          	sub	s4,a4,t3
20004dd0:	008a1793          	slli	a5,s4,0x8
20004dd4:	8476                	mv	s0,t4
20004dd6:	0007cd63          	bltz	a5,20004df0 <__adddf3+0x6d6>
20004dda:	003ede93          	srli	t4,t4,0x3
20004dde:	01da1613          	slli	a2,s4,0x1d
20004de2:	01d66633          	or	a2,a2,t4
20004de6:	003a5713          	srli	a4,s4,0x3
20004dea:	4785                	li	a5,1
20004dec:	bb2d                	j	20004b26 <__adddf3+0x40c>
20004dee:	84b6                	mv	s1,a3
20004df0:	4a85                	li	s5,1
20004df2:	b9fd                	j	20004af0 <__adddf3+0x3d6>
20004df4:	fe078693          	addi	a3,a5,-32
20004df8:	02000613          	li	a2,32
20004dfc:	00d756b3          	srl	a3,a4,a3
20004e00:	00c78a63          	beq	a5,a2,20004e14 <__adddf3+0x6fa>
20004e04:	04000613          	li	a2,64
20004e08:	40f607b3          	sub	a5,a2,a5
20004e0c:	00f717b3          	sll	a5,a4,a5
20004e10:	00feeeb3          	or	t4,t4,a5
20004e14:	01d037b3          	snez	a5,t4
20004e18:	8fd5                	or	a5,a5,a3
20004e1a:	becd                	j	20004a0c <__adddf3+0x2f2>
20004e1c:	00389793          	slli	a5,a7,0x3
20004e20:	01d71613          	slli	a2,a4,0x1d
20004e24:	838d                	srli	a5,a5,0x3
20004e26:	84b6                	mv	s1,a3
20004e28:	8e5d                	or	a2,a2,a5
20004e2a:	830d                	srli	a4,a4,0x3
20004e2c:	b1bd                	j	20004a9a <__adddf3+0x380>
20004e2e:	c60618e3          	bnez	a2,20004a9e <__adddf3+0x384>
20004e32:	00351413          	slli	s0,a0,0x3
20004e36:	00345793          	srli	a5,s0,0x3
20004e3a:	01da1613          	slli	a2,s4,0x1d
20004e3e:	8e5d                	or	a2,a2,a5
20004e40:	003a5713          	srli	a4,s4,0x3
20004e44:	b999                	j	20004a9a <__adddf3+0x380>
20004e46:	00389793          	slli	a5,a7,0x3
20004e4a:	01d71613          	slli	a2,a4,0x1d
20004e4e:	838d                	srli	a5,a5,0x3
20004e50:	8e5d                	or	a2,a2,a5
20004e52:	830d                	srli	a4,a4,0x3
20004e54:	b199                	j	20004a9a <__adddf3+0x380>
20004e56:	fe078613          	addi	a2,a5,-32
20004e5a:	02000513          	li	a0,32
20004e5e:	00ca5633          	srl	a2,s4,a2
20004e62:	00a78a63          	beq	a5,a0,20004e76 <__adddf3+0x75c>
20004e66:	04000513          	li	a0,64
20004e6a:	40f507b3          	sub	a5,a0,a5
20004e6e:	00fa17b3          	sll	a5,s4,a5
20004e72:	00fe6e33          	or	t3,t3,a5
20004e76:	01c03433          	snez	s0,t3
20004e7a:	8c51                	or	s0,s0,a2
20004e7c:	b395                	j	20004be0 <__adddf3+0x4c6>
20004e7e:	001e0413          	addi	s0,t3,1
20004e82:	b251                	j	20004806 <__adddf3+0xec>
20004e84:	41ce8e33          	sub	t3,t4,t3
20004e88:	01cebeb3          	sltu	t4,t4,t3
20004e8c:	41470733          	sub	a4,a4,s4
20004e90:	41d70a33          	sub	s4,a4,t4
20004e94:	008a1793          	slli	a5,s4,0x8
20004e98:	8472                	mv	s0,t3
20004e9a:	f407cae3          	bltz	a5,20004dee <__adddf3+0x6d4>
20004e9e:	003e5e13          	srli	t3,t3,0x3
20004ea2:	01da1613          	slli	a2,s4,0x1d
20004ea6:	84b6                	mv	s1,a3
20004ea8:	00ce6633          	or	a2,t3,a2
20004eac:	003a5713          	srli	a4,s4,0x3
20004eb0:	4785                	li	a5,1
20004eb2:	b995                	j	20004b26 <__adddf3+0x40c>
20004eb4:	d4060fe3          	beqz	a2,20004c12 <__adddf3+0x4f8>
20004eb8:	8a3a                	mv	s4,a4
20004eba:	8e76                	mv	t3,t4
20004ebc:	84b6                	mv	s1,a3
20004ebe:	b1f9                	j	20004b8c <__adddf3+0x472>
20004ec0:	87b6                	mv	a5,a3
20004ec2:	b605                	j	200049e2 <__adddf3+0x2c8>
20004ec4:	008006b7          	lui	a3,0x800
20004ec8:	00da6a33          	or	s4,s4,a3
20004ecc:	46fd                	li	a3,31
20004ece:	06f6c463          	blt	a3,a5,20004f36 <__adddf3+0x81c>
20004ed2:	02000613          	li	a2,32
20004ed6:	8e1d                	sub	a2,a2,a5
20004ed8:	00ca16b3          	sll	a3,s4,a2
20004edc:	00ce1633          	sll	a2,t3,a2
20004ee0:	00fe5e33          	srl	t3,t3,a5
20004ee4:	00c03633          	snez	a2,a2
20004ee8:	01c6e6b3          	or	a3,a3,t3
20004eec:	00fa57b3          	srl	a5,s4,a5
20004ef0:	8ed1                	or	a3,a3,a2
20004ef2:	973e                	add	a4,a4,a5
20004ef4:	9eb6                	add	t4,t4,a3
20004ef6:	00deb6b3          	sltu	a3,t4,a3
20004efa:	00e68a33          	add	s4,a3,a4
20004efe:	8476                	mv	s0,t4
20004f00:	8aae                	mv	s5,a1
20004f02:	be11                	j	20004a16 <__adddf3+0x2fc>
20004f04:	8aae                	mv	s5,a1
20004f06:	84b6                	mv	s1,a3
20004f08:	baf5                	j	20004904 <__adddf3+0x1ea>
20004f0a:	01d71613          	slli	a2,a4,0x1d
20004f0e:	003ede93          	srli	t4,t4,0x3
20004f12:	01d66633          	or	a2,a2,t4
20004f16:	830d                	srli	a4,a4,0x3
20004f18:	4785                	li	a5,1
20004f1a:	b131                	j	20004b26 <__adddf3+0x40c>
20004f1c:	d78d                	beqz	a5,20004e46 <__adddf3+0x72c>
20004f1e:	01d76eb3          	or	t4,a4,t4
20004f22:	b60e9ee3          	bnez	t4,20004a9e <__adddf3+0x384>
20004f26:	b731                	j	20004e32 <__adddf3+0x718>
20004f28:	060e                	slli	a2,a2,0x3
20004f2a:	00365413          	srli	s0,a2,0x3
20004f2e:	8a3a                	mv	s4,a4
20004f30:	bea1                	j	20004a88 <__adddf3+0x36e>
20004f32:	87b2                	mv	a5,a2
20004f34:	b151                	j	20004bb8 <__adddf3+0x49e>
20004f36:	fe078613          	addi	a2,a5,-32
20004f3a:	02000693          	li	a3,32
20004f3e:	00ca5633          	srl	a2,s4,a2
20004f42:	00d78a63          	beq	a5,a3,20004f56 <__adddf3+0x83c>
20004f46:	04000693          	li	a3,64
20004f4a:	40f687b3          	sub	a5,a3,a5
20004f4e:	00fa17b3          	sll	a5,s4,a5
20004f52:	00fe6e33          	or	t3,t3,a5
20004f56:	01c036b3          	snez	a3,t3
20004f5a:	8ed1                	or	a3,a3,a2
20004f5c:	bf61                	j	20004ef4 <__adddf3+0x7da>
20004f5e:	02000713          	li	a4,32
20004f62:	8f1d                	sub	a4,a4,a5
20004f64:	4601                	li	a2,0
20004f66:	baf9                	j	20004944 <__adddf3+0x22a>
20004f68:	9e068ae3          	beqz	a3,2000495c <__adddf3+0x242>
20004f6c:	8476                	mv	s0,t4
20004f6e:	8a3a                	mv	s4,a4
20004f70:	4781                	li	a5,0
20004f72:	800d                	srli	s0,s0,0x3
20004f74:	be11                	j	20004a88 <__adddf3+0x36e>
20004f76:	00f5e633          	or	a2,a1,a5
20004f7a:	c8060ce3          	beqz	a2,20004c12 <__adddf3+0x4f8>
20004f7e:	8a3e                	mv	s4,a5
20004f80:	8e2e                	mv	t3,a1
20004f82:	b129                	j	20004b8c <__adddf3+0x472>
20004f84:	838d                	srli	a5,a5,0x3
20004f86:	0676                	slli	a2,a2,0x1d
20004f88:	8e5d                	or	a2,a2,a5
20004f8a:	8311                	srli	a4,a4,0x4
20004f8c:	4789                	li	a5,2
20004f8e:	be61                	j	20004b26 <__adddf3+0x40c>
20004f90:	4801                	li	a6,0
20004f92:	7ff00793          	li	a5,2047
20004f96:	00080737          	lui	a4,0x80
20004f9a:	b065                	j	20004842 <__adddf3+0x128>
20004f9c:	87b6                	mv	a5,a3
20004f9e:	b73d                	j	20004ecc <__adddf3+0x7b2>
20004fa0:	ff800737          	lui	a4,0xff800
20004fa4:	177d                	addi	a4,a4,-1 # ff7fffff <__StackTop+0xdf77dfff>
20004fa6:	00ea7733          	and	a4,s4,a4
20004faa:	01d71613          	slli	a2,a4,0x1d
20004fae:	003ede93          	srli	t4,t4,0x3
20004fb2:	830d                	srli	a4,a4,0x3
20004fb4:	01d66633          	or	a2,a2,t4
20004fb8:	00677733          	and	a4,a4,t1
20004fbc:	4785                	li	a5,1
20004fbe:	b051                	j	20004842 <__adddf3+0x128>
20004fc0:	8abe                	mv	s5,a5
20004fc2:	84b6                	mv	s1,a3
20004fc4:	ff2ff06f          	j	200047b6 <__adddf3+0x9c>
20004fc8:	01d71613          	slli	a2,a4,0x1d
20004fcc:	003e5e13          	srli	t3,t3,0x3
20004fd0:	00ce6633          	or	a2,t3,a2
20004fd4:	830d                	srli	a4,a4,0x3
20004fd6:	4781                	li	a5,0
20004fd8:	b6b9                	j	20004b26 <__adddf3+0x40c>
20004fda:	800d                	srli	s0,s0,0x3
20004fdc:	87d6                	mv	a5,s5
20004fde:	b46d                	j	20004a88 <__adddf3+0x36e>

20004fe0 <__divdf3>:
20004fe0:	7179                	addi	sp,sp,-48
20004fe2:	0145d793          	srli	a5,a1,0x14
20004fe6:	d422                	sw	s0,40(sp)
20004fe8:	d226                	sw	s1,36(sp)
20004fea:	cc52                	sw	s4,24(sp)
20004fec:	ca56                	sw	s5,20(sp)
20004fee:	c266                	sw	s9,4(sp)
20004ff0:	00c59493          	slli	s1,a1,0xc
20004ff4:	d606                	sw	ra,44(sp)
20004ff6:	d04a                	sw	s2,32(sp)
20004ff8:	ce4e                	sw	s3,28(sp)
20004ffa:	c85a                	sw	s6,16(sp)
20004ffc:	c65e                	sw	s7,12(sp)
20004ffe:	c462                	sw	s8,8(sp)
20005000:	c06a                	sw	s10,0(sp)
20005002:	7ff7f793          	andi	a5,a5,2047
20005006:	842a                	mv	s0,a0
20005008:	8cb2                	mv	s9,a2
2000500a:	8a36                	mv	s4,a3
2000500c:	80b1                	srli	s1,s1,0xc
2000500e:	01f5da93          	srli	s5,a1,0x1f
20005012:	12078963          	beqz	a5,20005144 <__divdf3+0x164>
20005016:	7ff00713          	li	a4,2047
2000501a:	06e78a63          	beq	a5,a4,2000508e <__divdf3+0xae>
2000501e:	048e                	slli	s1,s1,0x3
20005020:	01d55b93          	srli	s7,a0,0x1d
20005024:	009bebb3          	or	s7,s7,s1
20005028:	00800737          	lui	a4,0x800
2000502c:	c0178b13          	addi	s6,a5,-1023
20005030:	00351c13          	slli	s8,a0,0x3
20005034:	00ebebb3          	or	s7,s7,a4
20005038:	4481                	li	s1,0
2000503a:	4d01                	li	s10,0
2000503c:	014a5793          	srli	a5,s4,0x14
20005040:	00ca1413          	slli	s0,s4,0xc
20005044:	7ff7f793          	andi	a5,a5,2047
20005048:	8031                	srli	s0,s0,0xc
2000504a:	01fa5a13          	srli	s4,s4,0x1f
2000504e:	c3b5                	beqz	a5,200050b2 <__divdf3+0xd2>
20005050:	7ff00713          	li	a4,2047
20005054:	0ce78e63          	beq	a5,a4,20005130 <__divdf3+0x150>
20005058:	040e                	slli	s0,s0,0x3
2000505a:	01dcd713          	srli	a4,s9,0x1d
2000505e:	c0178793          	addi	a5,a5,-1023
20005062:	8f41                	or	a4,a4,s0
20005064:	00800437          	lui	s0,0x800
20005068:	40fb0b33          	sub	s6,s6,a5
2000506c:	8c59                	or	s0,s0,a4
2000506e:	003c9793          	slli	a5,s9,0x3
20005072:	4681                	li	a3,0
20005074:	473d                	li	a4,15
20005076:	014ac5b3          	xor	a1,s5,s4
2000507a:	18976d63          	bltu	a4,s1,20005214 <__divdf3+0x234>
2000507e:	20007737          	lui	a4,0x20007
20005082:	c4c70713          	addi	a4,a4,-948 # 20006c4c <__bi_50.6+0xc>
20005086:	048a                	slli	s1,s1,0x2
20005088:	94ba                	add	s1,s1,a4
2000508a:	4098                	lw	a4,0(s1)
2000508c:	8702                	jr	a4
2000508e:	00a4ebb3          	or	s7,s1,a0
20005092:	140b9c63          	bnez	s7,200051ea <__divdf3+0x20a>
20005096:	8b3e                	mv	s6,a5
20005098:	014a5793          	srli	a5,s4,0x14
2000509c:	00ca1413          	slli	s0,s4,0xc
200050a0:	7ff7f793          	andi	a5,a5,2047
200050a4:	4c01                	li	s8,0
200050a6:	44a1                	li	s1,8
200050a8:	4d09                	li	s10,2
200050aa:	8031                	srli	s0,s0,0xc
200050ac:	01fa5a13          	srli	s4,s4,0x1f
200050b0:	f3c5                	bnez	a5,20005050 <__divdf3+0x70>
200050b2:	019467b3          	or	a5,s0,s9
200050b6:	14078563          	beqz	a5,20005200 <__divdf3+0x220>
200050ba:	36040663          	beqz	s0,20005426 <__divdf3+0x446>
200050be:	8522                	mv	a0,s0
200050c0:	664010ef          	jal	20006724 <__clzsi2>
200050c4:	872a                	mv	a4,a0
200050c6:	ff550793          	addi	a5,a0,-11
200050ca:	46f5                	li	a3,29
200050cc:	8e9d                	sub	a3,a3,a5
200050ce:	ff870793          	addi	a5,a4,-8
200050d2:	00f41433          	sll	s0,s0,a5
200050d6:	00dcd6b3          	srl	a3,s9,a3
200050da:	8c55                	or	s0,s0,a3
200050dc:	00fc97b3          	sll	a5,s9,a5
200050e0:	975a                	add	a4,a4,s6
200050e2:	3f370b13          	addi	s6,a4,1011
200050e6:	4681                	li	a3,0
200050e8:	b771                	j	20005074 <__divdf3+0x94>
200050ea:	7ff00793          	li	a5,2047
200050ee:	4681                	li	a3,0
200050f0:	4701                	li	a4,0
200050f2:	50b2                	lw	ra,44(sp)
200050f4:	5422                	lw	s0,40(sp)
200050f6:	07d2                	slli	a5,a5,0x14
200050f8:	05fe                	slli	a1,a1,0x1f
200050fa:	8fd5                	or	a5,a5,a3
200050fc:	8fcd                	or	a5,a5,a1
200050fe:	5492                	lw	s1,36(sp)
20005100:	5902                	lw	s2,32(sp)
20005102:	49f2                	lw	s3,28(sp)
20005104:	4a62                	lw	s4,24(sp)
20005106:	4ad2                	lw	s5,20(sp)
20005108:	4b42                	lw	s6,16(sp)
2000510a:	4bb2                	lw	s7,12(sp)
2000510c:	4c22                	lw	s8,8(sp)
2000510e:	4c92                	lw	s9,4(sp)
20005110:	4d02                	lw	s10,0(sp)
20005112:	853a                	mv	a0,a4
20005114:	85be                	mv	a1,a5
20005116:	6145                	addi	sp,sp,48
20005118:	8082                	ret
2000511a:	4781                	li	a5,0
2000511c:	4681                	li	a3,0
2000511e:	4701                	li	a4,0
20005120:	bfc9                	j	200050f2 <__divdf3+0x112>
20005122:	4581                	li	a1,0
20005124:	7ff00793          	li	a5,2047
20005128:	000806b7          	lui	a3,0x80
2000512c:	4701                	li	a4,0
2000512e:	b7d1                	j	200050f2 <__divdf3+0x112>
20005130:	019467b3          	or	a5,s0,s9
20005134:	801b0b13          	addi	s6,s6,-2047
20005138:	ebe9                	bnez	a5,2000520a <__divdf3+0x22a>
2000513a:	0024e493          	ori	s1,s1,2
2000513e:	4401                	li	s0,0
20005140:	4689                	li	a3,2
20005142:	bf0d                	j	20005074 <__divdf3+0x94>
20005144:	00a4ebb3          	or	s7,s1,a0
20005148:	0a0b8763          	beqz	s7,200051f6 <__divdf3+0x216>
2000514c:	2a048f63          	beqz	s1,2000540a <__divdf3+0x42a>
20005150:	8526                	mv	a0,s1
20005152:	5d2010ef          	jal	20006724 <__clzsi2>
20005156:	872a                	mv	a4,a0
20005158:	ff550793          	addi	a5,a0,-11
2000515c:	4bf5                	li	s7,29
2000515e:	ff870c13          	addi	s8,a4,-8
20005162:	40fb8bb3          	sub	s7,s7,a5
20005166:	018494b3          	sll	s1,s1,s8
2000516a:	01745bb3          	srl	s7,s0,s7
2000516e:	009bebb3          	or	s7,s7,s1
20005172:	01841c33          	sll	s8,s0,s8
20005176:	c0d00793          	li	a5,-1011
2000517a:	40e78b33          	sub	s6,a5,a4
2000517e:	4481                	li	s1,0
20005180:	4d01                	li	s10,0
20005182:	bd6d                	j	2000503c <__divdf3+0x5c>
20005184:	85d6                	mv	a1,s5
20005186:	845e                	mv	s0,s7
20005188:	87e2                	mv	a5,s8
2000518a:	4709                	li	a4,2
2000518c:	f4ed0fe3          	beq	s10,a4,200050ea <__divdf3+0x10a>
20005190:	470d                	li	a4,3
20005192:	f8ed08e3          	beq	s10,a4,20005122 <__divdf3+0x142>
20005196:	4705                	li	a4,1
20005198:	f8ed01e3          	beq	s10,a4,2000511a <__divdf3+0x13a>
2000519c:	3ffb0f93          	addi	t6,s6,1023
200051a0:	877e                	mv	a4,t6
200051a2:	3bf05a63          	blez	t6,20005556 <__divdf3+0x576>
200051a6:	0077f693          	andi	a3,a5,7
200051aa:	30069463          	bnez	a3,200054b2 <__divdf3+0x4d2>
200051ae:	0037d513          	srli	a0,a5,0x3
200051b2:	00741793          	slli	a5,s0,0x7
200051b6:	0007d863          	bgez	a5,200051c6 <__divdf3+0x1e6>
200051ba:	ff0007b7          	lui	a5,0xff000
200051be:	17fd                	addi	a5,a5,-1 # feffffff <__StackTop+0xdef7dfff>
200051c0:	400b0713          	addi	a4,s6,1024
200051c4:	8c7d                	and	s0,s0,a5
200051c6:	7fe00793          	li	a5,2046
200051ca:	f2e7c0e3          	blt	a5,a4,200050ea <__divdf3+0x10a>
200051ce:	01d41693          	slli	a3,s0,0x1d
200051d2:	00941613          	slli	a2,s0,0x9
200051d6:	7ff77793          	andi	a5,a4,2047
200051da:	00a6e733          	or	a4,a3,a0
200051de:	00c65693          	srli	a3,a2,0xc
200051e2:	bf01                	j	200050f2 <__divdf3+0x112>
200051e4:	85d2                	mv	a1,s4
200051e6:	8d36                	mv	s10,a3
200051e8:	b74d                	j	2000518a <__divdf3+0x1aa>
200051ea:	8ba6                	mv	s7,s1
200051ec:	8c2a                	mv	s8,a0
200051ee:	8b3e                	mv	s6,a5
200051f0:	44b1                	li	s1,12
200051f2:	4d0d                	li	s10,3
200051f4:	b5a1                	j	2000503c <__divdf3+0x5c>
200051f6:	4c01                	li	s8,0
200051f8:	4491                	li	s1,4
200051fa:	4b01                	li	s6,0
200051fc:	4d05                	li	s10,1
200051fe:	bd3d                	j	2000503c <__divdf3+0x5c>
20005200:	0014e493          	ori	s1,s1,1
20005204:	4401                	li	s0,0
20005206:	4685                	li	a3,1
20005208:	b5b5                	j	20005074 <__divdf3+0x94>
2000520a:	0034e493          	ori	s1,s1,3
2000520e:	87e6                	mv	a5,s9
20005210:	468d                	li	a3,3
20005212:	b58d                	j	20005074 <__divdf3+0x94>
20005214:	1f746263          	bltu	s0,s7,200053f8 <__divdf3+0x418>
20005218:	1c8b8e63          	beq	s7,s0,200053f4 <__divdf3+0x414>
2000521c:	86e2                	mv	a3,s8
2000521e:	1b7d                	addi	s6,s6,-1
20005220:	4c01                	li	s8,0
20005222:	00841713          	slli	a4,s0,0x8
20005226:	01075313          	srli	t1,a4,0x10
2000522a:	026bd433          	divu	s0,s7,t1
2000522e:	0187d613          	srli	a2,a5,0x18
20005232:	8e59                	or	a2,a2,a4
20005234:	01061893          	slli	a7,a2,0x10
20005238:	0108d893          	srli	a7,a7,0x10
2000523c:	0106d713          	srli	a4,a3,0x10
20005240:	00879813          	slli	a6,a5,0x8
20005244:	026bfbb3          	remu	s7,s7,t1
20005248:	02888533          	mul	a0,a7,s0
2000524c:	0bc2                	slli	s7,s7,0x10
2000524e:	017767b3          	or	a5,a4,s7
20005252:	00a7f863          	bgeu	a5,a0,20005262 <__divdf3+0x282>
20005256:	97b2                	add	a5,a5,a2
20005258:	fff40713          	addi	a4,s0,-1 # 7fffff <HeapSize+0x7ff7ff>
2000525c:	24c7f663          	bgeu	a5,a2,200054a8 <__divdf3+0x4c8>
20005260:	843a                	mv	s0,a4
20005262:	8f89                	sub	a5,a5,a0
20005264:	0267d733          	divu	a4,a5,t1
20005268:	06c2                	slli	a3,a3,0x10
2000526a:	82c1                	srli	a3,a3,0x10
2000526c:	0267f7b3          	remu	a5,a5,t1
20005270:	02e88fb3          	mul	t6,a7,a4
20005274:	07c2                	slli	a5,a5,0x10
20005276:	8edd                	or	a3,a3,a5
20005278:	01f6f863          	bgeu	a3,t6,20005288 <__divdf3+0x2a8>
2000527c:	96b2                	add	a3,a3,a2
2000527e:	fff70793          	addi	a5,a4,-1
20005282:	20c6fe63          	bgeu	a3,a2,2000549e <__divdf3+0x4be>
20005286:	873e                	mv	a4,a5
20005288:	0442                	slli	s0,s0,0x10
2000528a:	8c59                	or	s0,s0,a4
2000528c:	01041793          	slli	a5,s0,0x10
20005290:	01081e13          	slli	t3,a6,0x10
20005294:	83c1                	srli	a5,a5,0x10
20005296:	010e5e13          	srli	t3,t3,0x10
2000529a:	01085e93          	srli	t4,a6,0x10
2000529e:	01045513          	srli	a0,s0,0x10
200052a2:	02fe8733          	mul	a4,t4,a5
200052a6:	41f686b3          	sub	a3,a3,t6
200052aa:	03c78f33          	mul	t5,a5,t3
200052ae:	03c50fb3          	mul	t6,a0,t3
200052b2:	010f5793          	srli	a5,t5,0x10
200052b6:	977e                	add	a4,a4,t6
200052b8:	97ba                	add	a5,a5,a4
200052ba:	03d50533          	mul	a0,a0,t4
200052be:	01f7f463          	bgeu	a5,t6,200052c6 <__divdf3+0x2e6>
200052c2:	6741                	lui	a4,0x10
200052c4:	953a                	add	a0,a0,a4
200052c6:	010f1f93          	slli	t6,t5,0x10
200052ca:	0107d713          	srli	a4,a5,0x10
200052ce:	01079f13          	slli	t5,a5,0x10
200052d2:	010fdf93          	srli	t6,t6,0x10
200052d6:	00a707b3          	add	a5,a4,a0
200052da:	9f7e                	add	t5,t5,t6
200052dc:	0ef6e263          	bltu	a3,a5,200053c0 <__divdf3+0x3e0>
200052e0:	0cf68e63          	beq	a3,a5,200053bc <__divdf3+0x3dc>
200052e4:	41ec0f33          	sub	t5,s8,t5
200052e8:	01ec3c33          	sltu	s8,s8,t5
200052ec:	8e9d                	sub	a3,a3,a5
200052ee:	3ffb0f93          	addi	t6,s6,1023
200052f2:	418686b3          	sub	a3,a3,s8
200052f6:	877e                	mv	a4,t6
200052f8:	16d60463          	beq	a2,a3,20005460 <__divdf3+0x480>
200052fc:	0266d7b3          	divu	a5,a3,t1
20005300:	010f5513          	srli	a0,t5,0x10
20005304:	0266f6b3          	remu	a3,a3,t1
20005308:	02f882b3          	mul	t0,a7,a5
2000530c:	06c2                	slli	a3,a3,0x10
2000530e:	8ec9                	or	a3,a3,a0
20005310:	0056fb63          	bgeu	a3,t0,20005326 <__divdf3+0x346>
20005314:	96b2                	add	a3,a3,a2
20005316:	fff78513          	addi	a0,a5,-1
2000531a:	1ac6e263          	bltu	a3,a2,200054be <__divdf3+0x4de>
2000531e:	1a56f063          	bgeu	a3,t0,200054be <__divdf3+0x4de>
20005322:	17f9                	addi	a5,a5,-2
20005324:	96b2                	add	a3,a3,a2
20005326:	405686b3          	sub	a3,a3,t0
2000532a:	0266d533          	divu	a0,a3,t1
2000532e:	0f42                	slli	t5,t5,0x10
20005330:	010f5f13          	srli	t5,t5,0x10
20005334:	0266f6b3          	remu	a3,a3,t1
20005338:	02a888b3          	mul	a7,a7,a0
2000533c:	06c2                	slli	a3,a3,0x10
2000533e:	00df6f33          	or	t5,t5,a3
20005342:	011f7b63          	bgeu	t5,a7,20005358 <__divdf3+0x378>
20005346:	9f32                	add	t5,t5,a2
20005348:	fff50693          	addi	a3,a0,-1
2000534c:	16cf6b63          	bltu	t5,a2,200054c2 <__divdf3+0x4e2>
20005350:	171f7963          	bgeu	t5,a7,200054c2 <__divdf3+0x4e2>
20005354:	1579                	addi	a0,a0,-2
20005356:	9f32                	add	t5,t5,a2
20005358:	07c2                	slli	a5,a5,0x10
2000535a:	8fc9                	or	a5,a5,a0
2000535c:	01079693          	slli	a3,a5,0x10
20005360:	82c1                	srli	a3,a3,0x10
20005362:	0107d293          	srli	t0,a5,0x10
20005366:	02de8533          	mul	a0,t4,a3
2000536a:	411f0f33          	sub	t5,t5,a7
2000536e:	03c28333          	mul	t1,t0,t3
20005372:	02de0e33          	mul	t3,t3,a3
20005376:	951a                	add	a0,a0,t1
20005378:	010e5693          	srli	a3,t3,0x10
2000537c:	96aa                	add	a3,a3,a0
2000537e:	025e8eb3          	mul	t4,t4,t0
20005382:	0066f463          	bgeu	a3,t1,2000538a <__divdf3+0x3aa>
20005386:	6541                	lui	a0,0x10
20005388:	9eaa                	add	t4,t4,a0
2000538a:	0106d513          	srli	a0,a3,0x10
2000538e:	0e42                	slli	t3,t3,0x10
20005390:	010e5e13          	srli	t3,t3,0x10
20005394:	06c2                	slli	a3,a3,0x10
20005396:	9576                	add	a0,a0,t4
20005398:	96f2                	add	a3,a3,t3
2000539a:	0aaf6763          	bltu	t5,a0,20005448 <__divdf3+0x468>
2000539e:	0aaf0363          	beq	t5,a0,20005444 <__divdf3+0x464>
200053a2:	c0200693          	li	a3,-1022
200053a6:	0017e793          	ori	a5,a5,1
200053aa:	12db4863          	blt	s6,a3,200054da <__divdf3+0x4fa>
200053ae:	00478513          	addi	a0,a5,4
200053b2:	00f537b3          	sltu	a5,a0,a5
200053b6:	810d                	srli	a0,a0,0x3
200053b8:	943e                	add	s0,s0,a5
200053ba:	bbe5                	j	200051b2 <__divdf3+0x1d2>
200053bc:	f3ec74e3          	bgeu	s8,t5,200052e4 <__divdf3+0x304>
200053c0:	010c0733          	add	a4,s8,a6
200053c4:	01873533          	sltu	a0,a4,s8
200053c8:	00c50fb3          	add	t6,a0,a2
200053cc:	96fe                	add	a3,a3,t6
200053ce:	8c3a                	mv	s8,a4
200053d0:	fff40f93          	addi	t6,s0,-1
200053d4:	0cd67163          	bgeu	a2,a3,20005496 <__divdf3+0x4b6>
200053d8:	00f6e663          	bltu	a3,a5,200053e4 <__divdf3+0x404>
200053dc:	0ad79f63          	bne	a5,a3,2000549a <__divdf3+0x4ba>
200053e0:	0be77d63          	bgeu	a4,t5,2000549a <__divdf3+0x4ba>
200053e4:	9742                	add	a4,a4,a6
200053e6:	01073533          	sltu	a0,a4,a6
200053ea:	9532                	add	a0,a0,a2
200053ec:	1479                	addi	s0,s0,-2
200053ee:	96aa                	add	a3,a3,a0
200053f0:	8c3a                	mv	s8,a4
200053f2:	bdcd                	j	200052e4 <__divdf3+0x304>
200053f4:	e2fc64e3          	bltu	s8,a5,2000521c <__divdf3+0x23c>
200053f8:	01fb9693          	slli	a3,s7,0x1f
200053fc:	001c5713          	srli	a4,s8,0x1
20005400:	001bdb93          	srli	s7,s7,0x1
20005404:	8ed9                	or	a3,a3,a4
20005406:	0c7e                	slli	s8,s8,0x1f
20005408:	bd29                	j	20005222 <__divdf3+0x242>
2000540a:	31a010ef          	jal	20006724 <__clzsi2>
2000540e:	01550793          	addi	a5,a0,21 # 10015 <HeapSize+0xf815>
20005412:	46f1                	li	a3,28
20005414:	02050713          	addi	a4,a0,32
20005418:	d4f6d2e3          	bge	a3,a5,2000515c <__divdf3+0x17c>
2000541c:	1561                	addi	a0,a0,-8
2000541e:	00a41bb3          	sll	s7,s0,a0
20005422:	4c01                	li	s8,0
20005424:	bb89                	j	20005176 <__divdf3+0x196>
20005426:	8566                	mv	a0,s9
20005428:	2fc010ef          	jal	20006724 <__clzsi2>
2000542c:	01550793          	addi	a5,a0,21
20005430:	46f1                	li	a3,28
20005432:	02050713          	addi	a4,a0,32
20005436:	c8f6dae3          	bge	a3,a5,200050ca <__divdf3+0xea>
2000543a:	1561                	addi	a0,a0,-8
2000543c:	00ac9433          	sll	s0,s9,a0
20005440:	4781                	li	a5,0
20005442:	b979                	j	200050e0 <__divdf3+0x100>
20005444:	d4068ee3          	beqz	a3,200051a0 <__divdf3+0x1c0>
20005448:	9f32                	add	t5,t5,a2
2000544a:	88fa                	mv	a7,t5
2000544c:	fff78313          	addi	t1,a5,-1
20005450:	06cf6b63          	bltu	t5,a2,200054c6 <__divdf3+0x4e6>
20005454:	12af6a63          	bltu	t5,a0,20005588 <__divdf3+0x5a8>
20005458:	14af0363          	beq	t5,a0,2000559e <__divdf3+0x5be>
2000545c:	879a                	mv	a5,t1
2000545e:	b791                	j	200053a2 <__divdf3+0x3c2>
20005460:	4501                	li	a0,0
20005462:	4785                	li	a5,1
20005464:	f5f04ae3          	bgtz	t6,200053b8 <__divdf3+0x3d8>
20005468:	080f9663          	bnez	t6,200054f4 <__divdf3+0x514>
2000546c:	80000737          	lui	a4,0x80000
20005470:	01f41793          	slli	a5,s0,0x1f
20005474:	177d                	addi	a4,a4,-1 # 7fffffff <__StackTop+0x5ff7dfff>
20005476:	8fd9                	or	a5,a5,a4
20005478:	8005                	srli	s0,s0,0x1
2000547a:	00478713          	addi	a4,a5,4
2000547e:	00f737b3          	sltu	a5,a4,a5
20005482:	943e                	add	s0,s0,a5
20005484:	87ba                	mv	a5,a4
20005486:	00841713          	slli	a4,s0,0x8
2000548a:	12075963          	bgez	a4,200055bc <__divdf3+0x5dc>
2000548e:	4785                	li	a5,1
20005490:	4681                	li	a3,0
20005492:	4701                	li	a4,0
20005494:	b9b9                	j	200050f2 <__divdf3+0x112>
20005496:	02d60e63          	beq	a2,a3,200054d2 <__divdf3+0x4f2>
2000549a:	847e                	mv	s0,t6
2000549c:	b5a1                	j	200052e4 <__divdf3+0x304>
2000549e:	dff6f4e3          	bgeu	a3,t6,20005286 <__divdf3+0x2a6>
200054a2:	1779                	addi	a4,a4,-2
200054a4:	96b2                	add	a3,a3,a2
200054a6:	b3cd                	j	20005288 <__divdf3+0x2a8>
200054a8:	daa7fce3          	bgeu	a5,a0,20005260 <__divdf3+0x280>
200054ac:	1479                	addi	s0,s0,-2
200054ae:	97b2                	add	a5,a5,a2
200054b0:	bb4d                	j	20005262 <__divdf3+0x282>
200054b2:	00f7f693          	andi	a3,a5,15
200054b6:	4611                	li	a2,4
200054b8:	cec68be3          	beq	a3,a2,200051ae <__divdf3+0x1ce>
200054bc:	bdcd                	j	200053ae <__divdf3+0x3ce>
200054be:	87aa                	mv	a5,a0
200054c0:	b59d                	j	20005326 <__divdf3+0x346>
200054c2:	8536                	mv	a0,a3
200054c4:	bd51                	j	20005358 <__divdf3+0x378>
200054c6:	879a                	mv	a5,t1
200054c8:	eca89de3          	bne	a7,a0,200053a2 <__divdf3+0x3c2>
200054cc:	ed069be3          	bne	a3,a6,200053a2 <__divdf3+0x3c2>
200054d0:	b9c1                	j	200051a0 <__divdf3+0x1c0>
200054d2:	f561                	bnez	a0,2000549a <__divdf3+0x4ba>
200054d4:	f0f6e8e3          	bltu	a3,a5,200053e4 <__divdf3+0x404>
200054d8:	b711                	j	200053dc <__divdf3+0x3fc>
200054da:	c0100713          	li	a4,-1023
200054de:	00eb1c63          	bne	s6,a4,200054f6 <__divdf3+0x516>
200054e2:	0017d713          	srli	a4,a5,0x1
200054e6:	00176713          	ori	a4,a4,1
200054ea:	01f41793          	slli	a5,s0,0x1f
200054ee:	8fd9                	or	a5,a5,a4
200054f0:	8005                	srli	s0,s0,0x1
200054f2:	b761                	j	2000547a <__divdf3+0x49a>
200054f4:	57fd                	li	a5,-1
200054f6:	4705                	li	a4,1
200054f8:	41f70733          	sub	a4,a4,t6
200054fc:	03800693          	li	a3,56
20005500:	c0e6cde3          	blt	a3,a4,2000511a <__divdf3+0x13a>
20005504:	46fd                	li	a3,31
20005506:	0ae6d263          	bge	a3,a4,200055aa <__divdf3+0x5ca>
2000550a:	5685                	li	a3,-31
2000550c:	41f686b3          	sub	a3,a3,t6
20005510:	02000613          	li	a2,32
20005514:	00d456b3          	srl	a3,s0,a3
20005518:	00c70763          	beq	a4,a2,20005526 <__divdf3+0x546>
2000551c:	43eb0b13          	addi	s6,s6,1086
20005520:	01641433          	sll	s0,s0,s6
20005524:	8fc1                	or	a5,a5,s0
20005526:	00f037b3          	snez	a5,a5
2000552a:	8fd5                	or	a5,a5,a3
2000552c:	0077f713          	andi	a4,a5,7
20005530:	4681                	li	a3,0
20005532:	cf11                	beqz	a4,2000554e <__divdf3+0x56e>
20005534:	00f7f613          	andi	a2,a5,15
20005538:	4511                	li	a0,4
2000553a:	4701                	li	a4,0
2000553c:	00a60963          	beq	a2,a0,2000554e <__divdf3+0x56e>
20005540:	00a78633          	add	a2,a5,a0
20005544:	00f637b3          	sltu	a5,a2,a5
20005548:	01d79713          	slli	a4,a5,0x1d
2000554c:	87b2                	mv	a5,a2
2000554e:	838d                	srli	a5,a5,0x3
20005550:	8f5d                	or	a4,a4,a5
20005552:	4781                	li	a5,0
20005554:	be79                	j	200050f2 <__divdf3+0x112>
20005556:	fa0f90e3          	bnez	t6,200054f6 <__divdf3+0x516>
2000555a:	0077f693          	andi	a3,a5,7
2000555e:	0017d613          	srli	a2,a5,0x1
20005562:	4b7d                	li	s6,31
20005564:	4705                	li	a4,1
20005566:	e2ad                	bnez	a3,200055c8 <__divdf3+0x5e8>
20005568:	01641b33          	sll	s6,s0,s6
2000556c:	8e55                	or	a2,a2,a3
2000556e:	00cb67b3          	or	a5,s6,a2
20005572:	0077f693          	andi	a3,a5,7
20005576:	00e45433          	srl	s0,s0,a4
2000557a:	d691                	beqz	a3,20005486 <__divdf3+0x4a6>
2000557c:	00f7f713          	andi	a4,a5,15
20005580:	4691                	li	a3,4
20005582:	f0d702e3          	beq	a4,a3,20005486 <__divdf3+0x4a6>
20005586:	bdd5                	j	2000547a <__divdf3+0x49a>
20005588:	00181313          	slli	t1,a6,0x1
2000558c:	010338b3          	sltu	a7,t1,a6
20005590:	98b2                	add	a7,a7,a2
20005592:	98fa                	add	a7,a7,t5
20005594:	17f9                	addi	a5,a5,-2
20005596:	881a                	mv	a6,t1
20005598:	f2a88ae3          	beq	a7,a0,200054cc <__divdf3+0x4ec>
2000559c:	b519                	j	200053a2 <__divdf3+0x3c2>
2000559e:	fed865e3          	bltu	a6,a3,20005588 <__divdf3+0x5a8>
200055a2:	879a                	mv	a5,t1
200055a4:	df069fe3          	bne	a3,a6,200053a2 <__divdf3+0x3c2>
200055a8:	bee5                	j	200051a0 <__divdf3+0x1c0>
200055aa:	41eb0b13          	addi	s6,s6,1054
200055ae:	016796b3          	sll	a3,a5,s6
200055b2:	00d036b3          	snez	a3,a3
200055b6:	00e7d633          	srl	a2,a5,a4
200055ba:	b77d                	j	20005568 <__divdf3+0x588>
200055bc:	00941693          	slli	a3,s0,0x9
200055c0:	82b1                	srli	a3,a3,0xc
200055c2:	01d41713          	slli	a4,s0,0x1d
200055c6:	b761                	j	2000554e <__divdf3+0x56e>
200055c8:	00e7f6b3          	and	a3,a5,a4
200055cc:	bf71                	j	20005568 <__divdf3+0x588>

200055ce <__gedf2>:
200055ce:	0145d893          	srli	a7,a1,0x14
200055d2:	001007b7          	lui	a5,0x100
200055d6:	0146d713          	srli	a4,a3,0x14
200055da:	882a                	mv	a6,a0
200055dc:	17fd                	addi	a5,a5,-1 # fffff <HeapSize+0xff7ff>
200055de:	7ff00313          	li	t1,2047
200055e2:	7ff8f893          	andi	a7,a7,2047
200055e6:	00677533          	and	a0,a4,t1
200055ea:	8e42                	mv	t3,a6
200055ec:	00b7f733          	and	a4,a5,a1
200055f0:	8eb2                	mv	t4,a2
200055f2:	8ff5                	and	a5,a5,a3
200055f4:	81fd                	srli	a1,a1,0x1f
200055f6:	82fd                	srli	a3,a3,0x1f
200055f8:	02688e63          	beq	a7,t1,20005634 <__gedf2+0x66>
200055fc:	00650f63          	beq	a0,t1,2000561a <__gedf2+0x4c>
20005600:	04089763          	bnez	a7,2000564e <__gedf2+0x80>
20005604:	01076833          	or	a6,a4,a6
20005608:	e121                	bnez	a0,20005648 <__gedf2+0x7a>
2000560a:	8e5d                	or	a2,a2,a5
2000560c:	c235                	beqz	a2,20005670 <__gedf2+0xa2>
2000560e:	06081c63          	bnez	a6,20005686 <__gedf2+0xb8>
20005612:	00169513          	slli	a0,a3,0x1
20005616:	157d                	addi	a0,a0,-1
20005618:	8082                	ret
2000561a:	8e5d                	or	a2,a2,a5
2000561c:	e23d                	bnez	a2,20005682 <__gedf2+0xb4>
2000561e:	00089563          	bnez	a7,20005628 <__gedf2+0x5a>
20005622:	01076733          	or	a4,a4,a6
20005626:	d775                	beqz	a4,20005612 <__gedf2+0x44>
20005628:	00d59b63          	bne	a1,a3,2000563e <__gedf2+0x70>
2000562c:	00159513          	slli	a0,a1,0x1
20005630:	157d                	addi	a0,a0,-1
20005632:	8082                	ret
20005634:	01076733          	or	a4,a4,a6
20005638:	e729                	bnez	a4,20005682 <__gedf2+0xb4>
2000563a:	03150e63          	beq	a0,a7,20005676 <__gedf2+0xa8>
2000563e:	40b005b3          	neg	a1,a1
20005642:	0015e513          	ori	a0,a1,1
20005646:	8082                	ret
20005648:	fc0805e3          	beqz	a6,20005612 <__gedf2+0x44>
2000564c:	bff1                	j	20005628 <__gedf2+0x5a>
2000564e:	d965                	beqz	a0,2000563e <__gedf2+0x70>
20005650:	fed597e3          	bne	a1,a3,2000563e <__gedf2+0x70>
20005654:	ff1545e3          	blt	a0,a7,2000563e <__gedf2+0x70>
20005658:	fca8cae3          	blt	a7,a0,2000562c <__gedf2+0x5e>
2000565c:	fee7e1e3          	bltu	a5,a4,2000563e <__gedf2+0x70>
20005660:	fcf716e3          	bne	a4,a5,2000562c <__gedf2+0x5e>
20005664:	fdceede3          	bltu	t4,t3,2000563e <__gedf2+0x70>
20005668:	4501                	li	a0,0
2000566a:	fdde61e3          	bltu	t3,t4,2000562c <__gedf2+0x5e>
2000566e:	8082                	ret
20005670:	fc0817e3          	bnez	a6,2000563e <__gedf2+0x70>
20005674:	8082                	ret
20005676:	8fd1                	or	a5,a5,a2
20005678:	e789                	bnez	a5,20005682 <__gedf2+0xb4>
2000567a:	fcd592e3          	bne	a1,a3,2000563e <__gedf2+0x70>
2000567e:	4501                	li	a0,0
20005680:	8082                	ret
20005682:	5579                	li	a0,-2
20005684:	8082                	ret
20005686:	fcd58be3          	beq	a1,a3,2000565c <__gedf2+0x8e>
2000568a:	bf55                	j	2000563e <__gedf2+0x70>

2000568c <__ledf2>:
2000568c:	0145d893          	srli	a7,a1,0x14
20005690:	001007b7          	lui	a5,0x100
20005694:	0146d713          	srli	a4,a3,0x14
20005698:	882a                	mv	a6,a0
2000569a:	17fd                	addi	a5,a5,-1 # fffff <HeapSize+0xff7ff>
2000569c:	7ff00313          	li	t1,2047
200056a0:	7ff8f893          	andi	a7,a7,2047
200056a4:	00677533          	and	a0,a4,t1
200056a8:	8e42                	mv	t3,a6
200056aa:	00b7f733          	and	a4,a5,a1
200056ae:	8eb2                	mv	t4,a2
200056b0:	8ff5                	and	a5,a5,a3
200056b2:	81fd                	srli	a1,a1,0x1f
200056b4:	82fd                	srli	a3,a3,0x1f
200056b6:	04688363          	beq	a7,t1,200056fc <__ledf2+0x70>
200056ba:	00650f63          	beq	a0,t1,200056d8 <__ledf2+0x4c>
200056be:	04089b63          	bnez	a7,20005714 <__ledf2+0x88>
200056c2:	01076833          	or	a6,a4,a6
200056c6:	e93d                	bnez	a0,2000573c <__ledf2+0xb0>
200056c8:	8e5d                	or	a2,a2,a5
200056ca:	c615                	beqz	a2,200056f6 <__ledf2+0x6a>
200056cc:	06081d63          	bnez	a6,20005746 <__ledf2+0xba>
200056d0:	00169513          	slli	a0,a3,0x1
200056d4:	157d                	addi	a0,a0,-1
200056d6:	8082                	ret
200056d8:	8e5d                	or	a2,a2,a5
200056da:	4509                	li	a0,2
200056dc:	ee19                	bnez	a2,200056fa <__ledf2+0x6e>
200056de:	00089563          	bnez	a7,200056e8 <__ledf2+0x5c>
200056e2:	01076733          	or	a4,a4,a6
200056e6:	d76d                	beqz	a4,200056d0 <__ledf2+0x44>
200056e8:	04d58663          	beq	a1,a3,20005734 <__ledf2+0xa8>
200056ec:	40b005b3          	neg	a1,a1
200056f0:	0015e513          	ori	a0,a1,1
200056f4:	8082                	ret
200056f6:	fe081be3          	bnez	a6,200056ec <__ledf2+0x60>
200056fa:	8082                	ret
200056fc:	01076733          	or	a4,a4,a6
20005700:	e329                	bnez	a4,20005742 <__ledf2+0xb6>
20005702:	ff1515e3          	bne	a0,a7,200056ec <__ledf2+0x60>
20005706:	8fd1                	or	a5,a5,a2
20005708:	4509                	li	a0,2
2000570a:	fbe5                	bnez	a5,200056fa <__ledf2+0x6e>
2000570c:	fed590e3          	bne	a1,a3,200056ec <__ledf2+0x60>
20005710:	4501                	li	a0,0
20005712:	8082                	ret
20005714:	dd61                	beqz	a0,200056ec <__ledf2+0x60>
20005716:	fcd59be3          	bne	a1,a3,200056ec <__ledf2+0x60>
2000571a:	fd1549e3          	blt	a0,a7,200056ec <__ledf2+0x60>
2000571e:	00a8cb63          	blt	a7,a0,20005734 <__ledf2+0xa8>
20005722:	fce7e5e3          	bltu	a5,a4,200056ec <__ledf2+0x60>
20005726:	00f71763          	bne	a4,a5,20005734 <__ledf2+0xa8>
2000572a:	fdcee1e3          	bltu	t4,t3,200056ec <__ledf2+0x60>
2000572e:	4501                	li	a0,0
20005730:	fdde75e3          	bgeu	t3,t4,200056fa <__ledf2+0x6e>
20005734:	00159513          	slli	a0,a1,0x1
20005738:	157d                	addi	a0,a0,-1
2000573a:	8082                	ret
2000573c:	f8080ae3          	beqz	a6,200056d0 <__ledf2+0x44>
20005740:	b765                	j	200056e8 <__ledf2+0x5c>
20005742:	4509                	li	a0,2
20005744:	8082                	ret
20005746:	fcd58ee3          	beq	a1,a3,20005722 <__ledf2+0x96>
2000574a:	b74d                	j	200056ec <__ledf2+0x60>

2000574c <__muldf3>:
2000574c:	7179                	addi	sp,sp,-48
2000574e:	0145d793          	srli	a5,a1,0x14
20005752:	d422                	sw	s0,40(sp)
20005754:	d226                	sw	s1,36(sp)
20005756:	cc52                	sw	s4,24(sp)
20005758:	ca56                	sw	s5,20(sp)
2000575a:	c462                	sw	s8,8(sp)
2000575c:	00c59413          	slli	s0,a1,0xc
20005760:	d606                	sw	ra,44(sp)
20005762:	d04a                	sw	s2,32(sp)
20005764:	ce4e                	sw	s3,28(sp)
20005766:	c85a                	sw	s6,16(sp)
20005768:	c65e                	sw	s7,12(sp)
2000576a:	c266                	sw	s9,4(sp)
2000576c:	c06a                	sw	s10,0(sp)
2000576e:	7ff7f793          	andi	a5,a5,2047
20005772:	8aaa                	mv	s5,a0
20005774:	8c32                	mv	s8,a2
20005776:	84b6                	mv	s1,a3
20005778:	8031                	srli	s0,s0,0xc
2000577a:	01f5da13          	srli	s4,a1,0x1f
2000577e:	34078263          	beqz	a5,20005ac2 <__muldf3+0x376>
20005782:	7ff00713          	li	a4,2047
20005786:	22e78463          	beq	a5,a4,200059ae <__muldf3+0x262>
2000578a:	040e                	slli	s0,s0,0x3
2000578c:	01d55713          	srli	a4,a0,0x1d
20005790:	8f41                	or	a4,a4,s0
20005792:	00800437          	lui	s0,0x800
20005796:	c0178b13          	addi	s6,a5,-1023
2000579a:	00351b93          	slli	s7,a0,0x3
2000579e:	8c59                	or	s0,s0,a4
200057a0:	4c81                	li	s9,0
200057a2:	4d01                	li	s10,0
200057a4:	0144d793          	srli	a5,s1,0x14
200057a8:	00c49713          	slli	a4,s1,0xc
200057ac:	7ff7f793          	andi	a5,a5,2047
200057b0:	00c75a93          	srli	s5,a4,0xc
200057b4:	80fd                	srli	s1,s1,0x1f
200057b6:	20078f63          	beqz	a5,200059d4 <__muldf3+0x288>
200057ba:	7ff00713          	li	a4,2047
200057be:	2ce78e63          	beq	a5,a4,20005a9a <__muldf3+0x34e>
200057c2:	c0178793          	addi	a5,a5,-1023
200057c6:	4729                	li	a4,10
200057c8:	9b3e                	add	s6,s6,a5
200057ca:	25974c63          	blt	a4,s9,20005a22 <__muldf3+0x2d6>
200057ce:	003a9713          	slli	a4,s5,0x3
200057d2:	01dc5793          	srli	a5,s8,0x1d
200057d6:	8fd9                	or	a5,a5,a4
200057d8:	009a46b3          	xor	a3,s4,s1
200057dc:	00800737          	lui	a4,0x800
200057e0:	4609                	li	a2,2
200057e2:	00e7eab3          	or	s5,a5,a4
200057e6:	003c1813          	slli	a6,s8,0x3
200057ea:	85b6                	mv	a1,a3
200057ec:	4781                	li	a5,0
200057ee:	03965163          	bge	a2,s9,20005810 <__muldf3+0xc4>
200057f2:	4605                	li	a2,1
200057f4:	01961633          	sll	a2,a2,s9
200057f8:	53067713          	andi	a4,a2,1328
200057fc:	22071463          	bnez	a4,20005a24 <__muldf3+0x2d8>
20005800:	24067593          	andi	a1,a2,576
20005804:	3c059b63          	bnez	a1,20005bda <__muldf3+0x48e>
20005808:	08867613          	andi	a2,a2,136
2000580c:	3a061a63          	bnez	a2,20005bc0 <__muldf3+0x474>
20005810:	010b9793          	slli	a5,s7,0x10
20005814:	01081613          	slli	a2,a6,0x10
20005818:	83c1                	srli	a5,a5,0x10
2000581a:	8241                	srli	a2,a2,0x10
2000581c:	010bdb93          	srli	s7,s7,0x10
20005820:	01085813          	srli	a6,a6,0x10
20005824:	02c78733          	mul	a4,a5,a2
20005828:	02cb8533          	mul	a0,s7,a2
2000582c:	01075313          	srli	t1,a4,0x10
20005830:	02f805b3          	mul	a1,a6,a5
20005834:	95aa                	add	a1,a1,a0
20005836:	932e                	add	t1,t1,a1
20005838:	030b8eb3          	mul	t4,s7,a6
2000583c:	00a37463          	bgeu	t1,a0,20005844 <__muldf3+0xf8>
20005840:	65c1                	lui	a1,0x10
20005842:	9eae                	add	t4,t4,a1
20005844:	010a9e13          	slli	t3,s5,0x10
20005848:	0742                	slli	a4,a4,0x10
2000584a:	010e5e13          	srli	t3,t3,0x10
2000584e:	010ada93          	srli	s5,s5,0x10
20005852:	8341                	srli	a4,a4,0x10
20005854:	01031593          	slli	a1,t1,0x10
20005858:	03cb88b3          	mul	a7,s7,t3
2000585c:	95ba                	add	a1,a1,a4
2000585e:	01035313          	srli	t1,t1,0x10
20005862:	03c78733          	mul	a4,a5,t3
20005866:	02fa87b3          	mul	a5,s5,a5
2000586a:	01075513          	srli	a0,a4,0x10
2000586e:	97c6                	add	a5,a5,a7
20005870:	953e                	add	a0,a0,a5
20005872:	035b8bb3          	mul	s7,s7,s5
20005876:	01157463          	bgeu	a0,a7,2000587e <__muldf3+0x132>
2000587a:	67c1                	lui	a5,0x10
2000587c:	9bbe                	add	s7,s7,a5
2000587e:	01041793          	slli	a5,s0,0x10
20005882:	01071893          	slli	a7,a4,0x10
20005886:	83c1                	srli	a5,a5,0x10
20005888:	8041                	srli	s0,s0,0x10
2000588a:	0108d893          	srli	a7,a7,0x10
2000588e:	01051713          	slli	a4,a0,0x10
20005892:	02f80fb3          	mul	t6,a6,a5
20005896:	9746                	add	a4,a4,a7
20005898:	8141                	srli	a0,a0,0x10
2000589a:	933a                	add	t1,t1,a4
2000589c:	955e                	add	a0,a0,s7
2000589e:	02c408b3          	mul	a7,s0,a2
200058a2:	02c78f33          	mul	t5,a5,a2
200058a6:	9fc6                	add	t6,t6,a7
200058a8:	010f5613          	srli	a2,t5,0x10
200058ac:	967e                	add	a2,a2,t6
200058ae:	02880833          	mul	a6,a6,s0
200058b2:	01167463          	bgeu	a2,a7,200058ba <__muldf3+0x16e>
200058b6:	68c1                	lui	a7,0x10
200058b8:	9846                	add	a6,a6,a7
200058ba:	0f42                	slli	t5,t5,0x10
200058bc:	01061893          	slli	a7,a2,0x10
200058c0:	010f5f13          	srli	t5,t5,0x10
200058c4:	8241                	srli	a2,a2,0x10
200058c6:	9f46                	add	t5,t5,a7
200058c8:	9642                	add	a2,a2,a6
200058ca:	03c408b3          	mul	a7,s0,t3
200058ce:	03c78833          	mul	a6,a5,t3
200058d2:	02fa87b3          	mul	a5,s5,a5
200058d6:	01085e13          	srli	t3,a6,0x10
200058da:	97c6                	add	a5,a5,a7
200058dc:	9e3e                	add	t3,t3,a5
200058de:	028a8ab3          	mul	s5,s5,s0
200058e2:	011e7463          	bgeu	t3,a7,200058ea <__muldf3+0x19e>
200058e6:	67c1                	lui	a5,0x10
200058e8:	9abe                	add	s5,s5,a5
200058ea:	01081893          	slli	a7,a6,0x10
200058ee:	0108d893          	srli	a7,a7,0x10
200058f2:	010e1793          	slli	a5,t3,0x10
200058f6:	01d30833          	add	a6,t1,t4
200058fa:	97c6                	add	a5,a5,a7
200058fc:	953e                	add	a0,a0,a5
200058fe:	00e83733          	sltu	a4,a6,a4
20005902:	01e808b3          	add	a7,a6,t5
20005906:	972a                	add	a4,a4,a0
20005908:	963a                	add	a2,a2,a4
2000590a:	0108b833          	sltu	a6,a7,a6
2000590e:	9832                	add	a6,a6,a2
20005910:	00f537b3          	sltu	a5,a0,a5
20005914:	00a73533          	sltu	a0,a4,a0
20005918:	8fc9                	or	a5,a5,a0
2000591a:	00e63733          	sltu	a4,a2,a4
2000591e:	010e5e13          	srli	t3,t3,0x10
20005922:	00c83633          	sltu	a2,a6,a2
20005926:	97f2                	add	a5,a5,t3
20005928:	8f51                	or	a4,a4,a2
2000592a:	00989b93          	slli	s7,a7,0x9
2000592e:	973e                	add	a4,a4,a5
20005930:	00bbebb3          	or	s7,s7,a1
20005934:	9756                	add	a4,a4,s5
20005936:	0726                	slli	a4,a4,0x9
20005938:	01703bb3          	snez	s7,s7
2000593c:	0178d893          	srli	a7,a7,0x17
20005940:	01785413          	srli	s0,a6,0x17
20005944:	011bebb3          	or	s7,s7,a7
20005948:	0826                	slli	a6,a6,0x9
2000594a:	00771793          	slli	a5,a4,0x7
2000594e:	8c59                	or	s0,s0,a4
20005950:	010bebb3          	or	s7,s7,a6
20005954:	1007c963          	bltz	a5,20005a66 <__muldf3+0x31a>
20005958:	3ffb0793          	addi	a5,s6,1023
2000595c:	20f05b63          	blez	a5,20005b72 <__muldf3+0x426>
20005960:	007bf713          	andi	a4,s7,7
20005964:	c715                	beqz	a4,20005990 <__muldf3+0x244>
20005966:	00fbf713          	andi	a4,s7,15
2000596a:	4611                	li	a2,4
2000596c:	02c70263          	beq	a4,a2,20005990 <__muldf3+0x244>
20005970:	004b8713          	addi	a4,s7,4
20005974:	01773bb3          	sltu	s7,a4,s7
20005978:	945e                	add	s0,s0,s7
2000597a:	8bba                	mv	s7,a4
2000597c:	00741713          	slli	a4,s0,0x7
20005980:	00075863          	bgez	a4,20005990 <__muldf3+0x244>
20005984:	ff000737          	lui	a4,0xff000
20005988:	177d                	addi	a4,a4,-1 # feffffff <__StackTop+0xdef7dfff>
2000598a:	400b0793          	addi	a5,s6,1024
2000598e:	8c79                	and	s0,s0,a4
20005990:	7fe00713          	li	a4,2046
20005994:	24f74963          	blt	a4,a5,20005be6 <__muldf3+0x49a>
20005998:	01d41713          	slli	a4,s0,0x1d
2000599c:	003bdb93          	srli	s7,s7,0x3
200059a0:	0426                	slli	s0,s0,0x9
200059a2:	7ff7f793          	andi	a5,a5,2047
200059a6:	01776733          	or	a4,a4,s7
200059aa:	8031                	srli	s0,s0,0xc
200059ac:	a849                	j	20005a3e <__muldf3+0x2f2>
200059ae:	00a46bb3          	or	s7,s0,a0
200059b2:	1a0b9463          	bnez	s7,20005b5a <__muldf3+0x40e>
200059b6:	8b3e                	mv	s6,a5
200059b8:	0144d793          	srli	a5,s1,0x14
200059bc:	00c49713          	slli	a4,s1,0xc
200059c0:	7ff7f793          	andi	a5,a5,2047
200059c4:	4401                	li	s0,0
200059c6:	4ca1                	li	s9,8
200059c8:	4d09                	li	s10,2
200059ca:	00c75a93          	srli	s5,a4,0xc
200059ce:	80fd                	srli	s1,s1,0x1f
200059d0:	de0795e3          	bnez	a5,200057ba <__muldf3+0x6e>
200059d4:	018ae833          	or	a6,s5,s8
200059d8:	12080863          	beqz	a6,20005b08 <__muldf3+0x3bc>
200059dc:	220a8863          	beqz	s5,20005c0c <__muldf3+0x4c0>
200059e0:	8556                	mv	a0,s5
200059e2:	543000ef          	jal	20006724 <__clzsi2>
200059e6:	87aa                	mv	a5,a0
200059e8:	ff550713          	addi	a4,a0,-11
200059ec:	46f5                	li	a3,29
200059ee:	8e99                	sub	a3,a3,a4
200059f0:	ff878813          	addi	a6,a5,-8 # fff8 <HeapSize+0xf7f8>
200059f4:	010a9733          	sll	a4,s5,a6
200059f8:	00dc56b3          	srl	a3,s8,a3
200059fc:	00e6eab3          	or	s5,a3,a4
20005a00:	010c1833          	sll	a6,s8,a6
20005a04:	40fb07b3          	sub	a5,s6,a5
20005a08:	4729                	li	a4,10
20005a0a:	c0d78b13          	addi	s6,a5,-1011
20005a0e:	01974a63          	blt	a4,s9,20005a22 <__muldf3+0x2d6>
20005a12:	4789                	li	a5,2
20005a14:	009a46b3          	xor	a3,s4,s1
20005a18:	df97dce3          	bge	a5,s9,20005810 <__muldf3+0xc4>
20005a1c:	85b6                	mv	a1,a3
20005a1e:	4781                	li	a5,0
20005a20:	bbc9                	j	200057f2 <__muldf3+0xa6>
20005a22:	85d2                	mv	a1,s4
20005a24:	4789                	li	a5,2
20005a26:	1afd0463          	beq	s10,a5,20005bce <__muldf3+0x482>
20005a2a:	478d                	li	a5,3
20005a2c:	12fd0c63          	beq	s10,a5,20005b64 <__muldf3+0x418>
20005a30:	4785                	li	a5,1
20005a32:	86ae                	mv	a3,a1
20005a34:	04fd1463          	bne	s10,a5,20005a7c <__muldf3+0x330>
20005a38:	4781                	li	a5,0
20005a3a:	4401                	li	s0,0
20005a3c:	4701                	li	a4,0
20005a3e:	07d2                	slli	a5,a5,0x14
20005a40:	50b2                	lw	ra,44(sp)
20005a42:	8fc1                	or	a5,a5,s0
20005a44:	5422                	lw	s0,40(sp)
20005a46:	06fe                	slli	a3,a3,0x1f
20005a48:	8fd5                	or	a5,a5,a3
20005a4a:	5492                	lw	s1,36(sp)
20005a4c:	5902                	lw	s2,32(sp)
20005a4e:	49f2                	lw	s3,28(sp)
20005a50:	4a62                	lw	s4,24(sp)
20005a52:	4ad2                	lw	s5,20(sp)
20005a54:	4b42                	lw	s6,16(sp)
20005a56:	4bb2                	lw	s7,12(sp)
20005a58:	4c22                	lw	s8,8(sp)
20005a5a:	4c92                	lw	s9,4(sp)
20005a5c:	4d02                	lw	s10,0(sp)
20005a5e:	853a                	mv	a0,a4
20005a60:	85be                	mv	a1,a5
20005a62:	6145                	addi	sp,sp,48
20005a64:	8082                	ret
20005a66:	001bd793          	srli	a5,s7,0x1
20005a6a:	001bfb93          	andi	s7,s7,1
20005a6e:	0177e7b3          	or	a5,a5,s7
20005a72:	01f41b93          	slli	s7,s0,0x1f
20005a76:	0177ebb3          	or	s7,a5,s7
20005a7a:	8005                	srli	s0,s0,0x1
20005a7c:	400b0793          	addi	a5,s6,1024
20005a80:	0b05                	addi	s6,s6,1
20005a82:	0ef05863          	blez	a5,20005b72 <__muldf3+0x426>
20005a86:	007bf713          	andi	a4,s7,7
20005a8a:	ee0709e3          	beqz	a4,2000597c <__muldf3+0x230>
20005a8e:	00fbf713          	andi	a4,s7,15
20005a92:	4611                	li	a2,4
20005a94:	ecc71ee3          	bne	a4,a2,20005970 <__muldf3+0x224>
20005a98:	b5d5                	j	2000597c <__muldf3+0x230>
20005a9a:	018ae833          	or	a6,s5,s8
20005a9e:	7ffb0b13          	addi	s6,s6,2047
20005aa2:	08081b63          	bnez	a6,20005b38 <__muldf3+0x3ec>
20005aa6:	002ce793          	ori	a5,s9,2
20005aaa:	4729                	li	a4,10
20005aac:	f6f74be3          	blt	a4,a5,20005a22 <__muldf3+0x2d6>
20005ab0:	009a45b3          	xor	a1,s4,s1
20005ab4:	86ae                	mv	a3,a1
20005ab6:	1c0c8e63          	beqz	s9,20005c92 <__muldf3+0x546>
20005aba:	8cbe                	mv	s9,a5
20005abc:	4a81                	li	s5,0
20005abe:	4789                	li	a5,2
20005ac0:	bb0d                	j	200057f2 <__muldf3+0xa6>
20005ac2:	00a46bb3          	or	s7,s0,a0
20005ac6:	020b8c63          	beqz	s7,20005afe <__muldf3+0x3b2>
20005aca:	12040363          	beqz	s0,20005bf0 <__muldf3+0x4a4>
20005ace:	8522                	mv	a0,s0
20005ad0:	455000ef          	jal	20006724 <__clzsi2>
20005ad4:	872a                	mv	a4,a0
20005ad6:	ff550693          	addi	a3,a0,-11
20005ada:	47f5                	li	a5,29
20005adc:	ff870b93          	addi	s7,a4,-8
20005ae0:	8f95                	sub	a5,a5,a3
20005ae2:	01741433          	sll	s0,s0,s7
20005ae6:	00fad7b3          	srl	a5,s5,a5
20005aea:	8c5d                	or	s0,s0,a5
20005aec:	017a9bb3          	sll	s7,s5,s7
20005af0:	c0d00793          	li	a5,-1011
20005af4:	40e78b33          	sub	s6,a5,a4
20005af8:	4c81                	li	s9,0
20005afa:	4d01                	li	s10,0
20005afc:	b165                	j	200057a4 <__muldf3+0x58>
20005afe:	4401                	li	s0,0
20005b00:	4c91                	li	s9,4
20005b02:	4b01                	li	s6,0
20005b04:	4d05                	li	s10,1
20005b06:	b979                	j	200057a4 <__muldf3+0x58>
20005b08:	001cec93          	ori	s9,s9,1
20005b0c:	47a9                	li	a5,10
20005b0e:	f197cae3          	blt	a5,s9,20005a22 <__muldf3+0x2d6>
20005b12:	009a45b3          	xor	a1,s4,s1
20005b16:	4709                	li	a4,2
20005b18:	86ae                	mv	a3,a1
20005b1a:	4a81                	li	s5,0
20005b1c:	4785                	li	a5,1
20005b1e:	cd974ae3          	blt	a4,s9,200057f2 <__muldf3+0xa6>
20005b22:	4709                	li	a4,2
20005b24:	0ae78563          	beq	a5,a4,20005bce <__muldf3+0x482>
20005b28:	4d05                	li	s10,1
20005b2a:	4785                	li	a5,1
20005b2c:	4401                	li	s0,0
20005b2e:	4b81                	li	s7,0
20005b30:	86ae                	mv	a3,a1
20005b32:	f4fd15e3          	bne	s10,a5,20005a7c <__muldf3+0x330>
20005b36:	b709                	j	20005a38 <__muldf3+0x2ec>
20005b38:	003cec93          	ori	s9,s9,3
20005b3c:	4729                	li	a4,10
20005b3e:	15974563          	blt	a4,s9,20005c88 <__muldf3+0x53c>
20005b42:	4705                	li	a4,1
20005b44:	01971633          	sll	a2,a4,s9
20005b48:	08867613          	andi	a2,a2,136
20005b4c:	009a46b3          	xor	a3,s4,s1
20005b50:	8862                	mv	a6,s8
20005b52:	478d                	li	a5,3
20005b54:	ca060ee3          	beqz	a2,20005810 <__muldf3+0xc4>
20005b58:	a0a5                	j	20005bc0 <__muldf3+0x474>
20005b5a:	8baa                	mv	s7,a0
20005b5c:	8b3e                	mv	s6,a5
20005b5e:	4cb1                	li	s9,12
20005b60:	4d0d                	li	s10,3
20005b62:	b189                	j	200057a4 <__muldf3+0x58>
20005b64:	4681                	li	a3,0
20005b66:	7ff00793          	li	a5,2047
20005b6a:	00080437          	lui	s0,0x80
20005b6e:	4701                	li	a4,0
20005b70:	b5f9                	j	20005a3e <__muldf3+0x2f2>
20005b72:	4605                	li	a2,1
20005b74:	ebdd                	bnez	a5,20005c2a <__muldf3+0x4de>
20005b76:	41eb0b13          	addi	s6,s6,1054
20005b7a:	016b97b3          	sll	a5,s7,s6
20005b7e:	00f037b3          	snez	a5,a5
20005b82:	01641b33          	sll	s6,s0,s6
20005b86:	0167e7b3          	or	a5,a5,s6
20005b8a:	00cbd733          	srl	a4,s7,a2
20005b8e:	8f5d                	or	a4,a4,a5
20005b90:	00777793          	andi	a5,a4,7
20005b94:	00c45633          	srl	a2,s0,a2
20005b98:	cf81                	beqz	a5,20005bb0 <__muldf3+0x464>
20005b9a:	00f77793          	andi	a5,a4,15
20005b9e:	4591                	li	a1,4
20005ba0:	00b78863          	beq	a5,a1,20005bb0 <__muldf3+0x464>
20005ba4:	00b707b3          	add	a5,a4,a1
20005ba8:	00e7b733          	sltu	a4,a5,a4
20005bac:	963a                	add	a2,a2,a4
20005bae:	873e                	mv	a4,a5
20005bb0:	00861793          	slli	a5,a2,0x8
20005bb4:	0e07d163          	bgez	a5,20005c96 <__muldf3+0x54a>
20005bb8:	4785                	li	a5,1
20005bba:	4401                	li	s0,0
20005bbc:	4701                	li	a4,0
20005bbe:	b541                	j	20005a3e <__muldf3+0x2f2>
20005bc0:	8d3e                	mv	s10,a5
20005bc2:	4789                	li	a5,2
20005bc4:	85a6                	mv	a1,s1
20005bc6:	8456                	mv	s0,s5
20005bc8:	8bc2                	mv	s7,a6
20005bca:	e6fd10e3          	bne	s10,a5,20005a2a <__muldf3+0x2de>
20005bce:	86ae                	mv	a3,a1
20005bd0:	7ff00793          	li	a5,2047
20005bd4:	4401                	li	s0,0
20005bd6:	4701                	li	a4,0
20005bd8:	b59d                	j	20005a3e <__muldf3+0x2f2>
20005bda:	4681                	li	a3,0
20005bdc:	7ff00793          	li	a5,2047
20005be0:	00080437          	lui	s0,0x80
20005be4:	bda9                	j	20005a3e <__muldf3+0x2f2>
20005be6:	7ff00793          	li	a5,2047
20005bea:	4401                	li	s0,0
20005bec:	4701                	li	a4,0
20005bee:	bd81                	j	20005a3e <__muldf3+0x2f2>
20005bf0:	335000ef          	jal	20006724 <__clzsi2>
20005bf4:	01550693          	addi	a3,a0,21
20005bf8:	47f1                	li	a5,28
20005bfa:	02050713          	addi	a4,a0,32
20005bfe:	ecd7dee3          	bge	a5,a3,20005ada <__muldf3+0x38e>
20005c02:	1561                	addi	a0,a0,-8
20005c04:	00aa9433          	sll	s0,s5,a0
20005c08:	4b81                	li	s7,0
20005c0a:	b5dd                	j	20005af0 <__muldf3+0x3a4>
20005c0c:	8562                	mv	a0,s8
20005c0e:	317000ef          	jal	20006724 <__clzsi2>
20005c12:	01550713          	addi	a4,a0,21
20005c16:	46f1                	li	a3,28
20005c18:	02050793          	addi	a5,a0,32
20005c1c:	dce6d8e3          	bge	a3,a4,200059ec <__muldf3+0x2a0>
20005c20:	1561                	addi	a0,a0,-8
20005c22:	00ac1ab3          	sll	s5,s8,a0
20005c26:	4801                	li	a6,0
20005c28:	bbf1                	j	20005a04 <__muldf3+0x2b8>
20005c2a:	8e1d                	sub	a2,a2,a5
20005c2c:	03800713          	li	a4,56
20005c30:	e0c744e3          	blt	a4,a2,20005a38 <__muldf3+0x2ec>
20005c34:	477d                	li	a4,31
20005c36:	f4c750e3          	bge	a4,a2,20005b76 <__muldf3+0x42a>
20005c3a:	5705                	li	a4,-31
20005c3c:	40f707b3          	sub	a5,a4,a5
20005c40:	02000713          	li	a4,32
20005c44:	00f457b3          	srl	a5,s0,a5
20005c48:	00e60863          	beq	a2,a4,20005c58 <__muldf3+0x50c>
20005c4c:	43eb0b13          	addi	s6,s6,1086
20005c50:	01641b33          	sll	s6,s0,s6
20005c54:	016bebb3          	or	s7,s7,s6
20005c58:	01703733          	snez	a4,s7
20005c5c:	8f5d                	or	a4,a4,a5
20005c5e:	00777793          	andi	a5,a4,7
20005c62:	4401                	li	s0,0
20005c64:	cf91                	beqz	a5,20005c80 <__muldf3+0x534>
20005c66:	00f77613          	andi	a2,a4,15
20005c6a:	4591                	li	a1,4
20005c6c:	4781                	li	a5,0
20005c6e:	00b60963          	beq	a2,a1,20005c80 <__muldf3+0x534>
20005c72:	00b70633          	add	a2,a4,a1
20005c76:	00e63733          	sltu	a4,a2,a4
20005c7a:	01d71793          	slli	a5,a4,0x1d
20005c7e:	8732                	mv	a4,a2
20005c80:	830d                	srli	a4,a4,0x3
20005c82:	8f5d                	or	a4,a4,a5
20005c84:	4781                	li	a5,0
20005c86:	bb65                	j	20005a3e <__muldf3+0x2f2>
20005c88:	4681                	li	a3,0
20005c8a:	00080437          	lui	s0,0x80
20005c8e:	4701                	li	a4,0
20005c90:	b37d                	j	20005a3e <__muldf3+0x2f2>
20005c92:	4789                	li	a5,2
20005c94:	b579                	j	20005b22 <__muldf3+0x3d6>
20005c96:	00961413          	slli	s0,a2,0x9
20005c9a:	8031                	srli	s0,s0,0xc
20005c9c:	01d61793          	slli	a5,a2,0x1d
20005ca0:	b7c5                	j	20005c80 <__muldf3+0x534>

20005ca2 <__subdf3>:
20005ca2:	001007b7          	lui	a5,0x100
20005ca6:	17fd                	addi	a5,a5,-1 # fffff <HeapSize+0xff7ff>
20005ca8:	1101                	addi	sp,sp,-32
20005caa:	00b7f8b3          	and	a7,a5,a1
20005cae:	0146d813          	srli	a6,a3,0x14
20005cb2:	8ff5                	and	a5,a5,a3
20005cb4:	088e                	slli	a7,a7,0x3
20005cb6:	00379713          	slli	a4,a5,0x3
20005cba:	ca26                	sw	s1,20(sp)
20005cbc:	c452                	sw	s4,8(sp)
20005cbe:	c256                	sw	s5,4(sp)
20005cc0:	01d55a13          	srli	s4,a0,0x1d
20005cc4:	0145da93          	srli	s5,a1,0x14
20005cc8:	01d65793          	srli	a5,a2,0x1d
20005ccc:	01f5d493          	srli	s1,a1,0x1f
20005cd0:	7ff00313          	li	t1,2047
20005cd4:	ce06                	sw	ra,28(sp)
20005cd6:	cc22                	sw	s0,24(sp)
20005cd8:	c84a                	sw	s2,16(sp)
20005cda:	c64e                	sw	s3,12(sp)
20005cdc:	7ff87813          	andi	a6,a6,2047
20005ce0:	011a6a33          	or	s4,s4,a7
20005ce4:	8e32                	mv	t3,a2
20005ce6:	8fd9                	or	a5,a5,a4
20005ce8:	82fd                	srli	a3,a3,0x1f
20005cea:	006afab3          	and	s5,s5,t1
20005cee:	85a6                	mv	a1,s1
20005cf0:	00351e93          	slli	t4,a0,0x3
20005cf4:	00361893          	slli	a7,a2,0x3
20005cf8:	16680863          	beq	a6,t1,20005e68 <__subdf3+0x1c6>
20005cfc:	0016c693          	xori	a3,a3,1
20005d00:	410a8733          	sub	a4,s5,a6
20005d04:	0cd48563          	beq	s1,a3,20005dce <__subdf3+0x12c>
20005d08:	5ae05263          	blez	a4,200062ac <__subdf3+0x60a>
20005d0c:	18080b63          	beqz	a6,20005ea2 <__subdf3+0x200>
20005d10:	386a8f63          	beq	s5,t1,200060ae <__subdf3+0x40c>
20005d14:	03800693          	li	a3,56
20005d18:	1ae6c363          	blt	a3,a4,20005ebe <__subdf3+0x21c>
20005d1c:	008006b7          	lui	a3,0x800
20005d20:	8fd5                	or	a5,a5,a3
20005d22:	46fd                	li	a3,31
20005d24:	46e6c463          	blt	a3,a4,2000618c <__subdf3+0x4ea>
20005d28:	02000693          	li	a3,32
20005d2c:	8e99                	sub	a3,a3,a4
20005d2e:	00d79433          	sll	s0,a5,a3
20005d32:	00d896b3          	sll	a3,a7,a3
20005d36:	00e8d8b3          	srl	a7,a7,a4
20005d3a:	00d036b3          	snez	a3,a3
20005d3e:	01146433          	or	s0,s0,a7
20005d42:	00e7d733          	srl	a4,a5,a4
20005d46:	8c55                	or	s0,s0,a3
20005d48:	40ea0a33          	sub	s4,s4,a4
20005d4c:	408e8433          	sub	s0,t4,s0
20005d50:	008ebeb3          	sltu	t4,t4,s0
20005d54:	41da0a33          	sub	s4,s4,t4
20005d58:	008a1793          	slli	a5,s4,0x8
20005d5c:	2e07c363          	bltz	a5,20006042 <__subdf3+0x3a0>
20005d60:	00747793          	andi	a5,s0,7
20005d64:	32078d63          	beqz	a5,2000609e <__subdf3+0x3fc>
20005d68:	00f47793          	andi	a5,s0,15
20005d6c:	4711                	li	a4,4
20005d6e:	32e78863          	beq	a5,a4,2000609e <__subdf3+0x3fc>
20005d72:	00440793          	addi	a5,s0,4 # 80004 <HeapSize+0x7f804>
20005d76:	0087b433          	sltu	s0,a5,s0
20005d7a:	9a22                	add	s4,s4,s0
20005d7c:	843e                	mv	s0,a5
20005d7e:	008a1793          	slli	a5,s4,0x8
20005d82:	3007de63          	bgez	a5,2000609e <__subdf3+0x3fc>
20005d86:	001a8793          	addi	a5,s5,1
20005d8a:	7ff00713          	li	a4,2047
20005d8e:	0014f593          	andi	a1,s1,1
20005d92:	26e78f63          	beq	a5,a4,20006010 <__subdf3+0x36e>
20005d96:	ff800737          	lui	a4,0xff800
20005d9a:	177d                	addi	a4,a4,-1 # ff7fffff <__StackTop+0xdf77dfff>
20005d9c:	7ff7f793          	andi	a5,a5,2047
20005da0:	00ea7733          	and	a4,s4,a4
20005da4:	01d71613          	slli	a2,a4,0x1d
20005da8:	800d                	srli	s0,s0,0x3
20005daa:	0726                	slli	a4,a4,0x9
20005dac:	8e41                	or	a2,a2,s0
20005dae:	8331                	srli	a4,a4,0xc
20005db0:	40f2                	lw	ra,28(sp)
20005db2:	4462                	lw	s0,24(sp)
20005db4:	07d2                	slli	a5,a5,0x14
20005db6:	05fe                	slli	a1,a1,0x1f
20005db8:	8fd9                	or	a5,a5,a4
20005dba:	8fcd                	or	a5,a5,a1
20005dbc:	44d2                	lw	s1,20(sp)
20005dbe:	4942                	lw	s2,16(sp)
20005dc0:	49b2                	lw	s3,12(sp)
20005dc2:	4a22                	lw	s4,8(sp)
20005dc4:	4a92                	lw	s5,4(sp)
20005dc6:	8532                	mv	a0,a2
20005dc8:	85be                	mv	a1,a5
20005dca:	6105                	addi	sp,sp,32
20005dcc:	8082                	ret
20005dce:	5ae05863          	blez	a4,2000637e <__subdf3+0x6dc>
20005dd2:	20081c63          	bnez	a6,20005fea <__subdf3+0x348>
20005dd6:	0117e733          	or	a4,a5,a7
20005dda:	22070e63          	beqz	a4,20006016 <__subdf3+0x374>
20005dde:	fffa8713          	addi	a4,s5,-1
20005de2:	46070c63          	beqz	a4,2000625a <__subdf3+0x5b8>
20005de6:	5c6a8463          	beq	s5,t1,200063ae <__subdf3+0x70c>
20005dea:	03800693          	li	a3,56
20005dee:	20e6c863          	blt	a3,a4,20005ffe <__subdf3+0x35c>
20005df2:	46fd                	li	a3,31
20005df4:	52e6c063          	blt	a3,a4,20006314 <__subdf3+0x672>
20005df8:	02000613          	li	a2,32
20005dfc:	8e19                	sub	a2,a2,a4
20005dfe:	00c796b3          	sll	a3,a5,a2
20005e02:	00c89633          	sll	a2,a7,a2
20005e06:	00e8d8b3          	srl	a7,a7,a4
20005e0a:	00c03633          	snez	a2,a2
20005e0e:	00e7d733          	srl	a4,a5,a4
20005e12:	0116e6b3          	or	a3,a3,a7
20005e16:	00c6e7b3          	or	a5,a3,a2
20005e1a:	9a3a                	add	s4,s4,a4
20005e1c:	9ebe                	add	t4,t4,a5
20005e1e:	00feb7b3          	sltu	a5,t4,a5
20005e22:	9a3e                	add	s4,s4,a5
20005e24:	8476                	mv	s0,t4
20005e26:	008a1793          	slli	a5,s4,0x8
20005e2a:	f207dbe3          	bgez	a5,20005d60 <__subdf3+0xbe>
20005e2e:	0a85                	addi	s5,s5,1
20005e30:	7ff00793          	li	a5,2047
20005e34:	4cfa8c63          	beq	s5,a5,2000630c <__subdf3+0x66a>
20005e38:	ff8007b7          	lui	a5,0xff800
20005e3c:	17fd                	addi	a5,a5,-1 # ff7fffff <__StackTop+0xdf77dfff>
20005e3e:	00fa77b3          	and	a5,s4,a5
20005e42:	00145713          	srli	a4,s0,0x1
20005e46:	8805                	andi	s0,s0,1
20005e48:	01f79693          	slli	a3,a5,0x1f
20005e4c:	8f41                	or	a4,a4,s0
20005e4e:	0017da13          	srli	s4,a5,0x1
20005e52:	00e6e433          	or	s0,a3,a4
20005e56:	00747793          	andi	a5,s0,7
20005e5a:	d395                	beqz	a5,20005d7e <__subdf3+0xdc>
20005e5c:	00f47793          	andi	a5,s0,15
20005e60:	4711                	li	a4,4
20005e62:	f0e798e3          	bne	a5,a4,20005d72 <__subdf3+0xd0>
20005e66:	bf21                	j	20005d7e <__subdf3+0xdc>
20005e68:	0117e733          	or	a4,a5,a7
20005e6c:	801a8613          	addi	a2,s5,-2047
20005e70:	c769                	beqz	a4,20005f3a <__subdf3+0x298>
20005e72:	0cd48863          	beq	s1,a3,20005f42 <__subdf3+0x2a0>
20005e76:	10060763          	beqz	a2,20005f84 <__subdf3+0x2e2>
20005e7a:	2c0a8a63          	beqz	s5,2000614e <__subdf3+0x4ac>
20005e7e:	003e1713          	slli	a4,t3,0x3
20005e82:	01d79613          	slli	a2,a5,0x1d
20005e86:	830d                	srli	a4,a4,0x3
20005e88:	84b6                	mv	s1,a3
20005e8a:	8e59                	or	a2,a2,a4
20005e8c:	838d                	srli	a5,a5,0x3
20005e8e:	8e5d                	or	a2,a2,a5
20005e90:	20060963          	beqz	a2,200060a2 <__subdf3+0x400>
20005e94:	4581                	li	a1,0
20005e96:	7ff00793          	li	a5,2047
20005e9a:	00080737          	lui	a4,0x80
20005e9e:	4601                	li	a2,0
20005ea0:	bf01                	j	20005db0 <__subdf3+0x10e>
20005ea2:	0117e733          	or	a4,a5,a7
20005ea6:	16070863          	beqz	a4,20006016 <__subdf3+0x374>
20005eaa:	fffa8713          	addi	a4,s5,-1
20005eae:	42070863          	beqz	a4,200062de <__subdf3+0x63c>
20005eb2:	1e6a8e63          	beq	s5,t1,200060ae <__subdf3+0x40c>
20005eb6:	03800693          	li	a3,56
20005eba:	e6e6d4e3          	bge	a3,a4,20005d22 <__subdf3+0x80>
20005ebe:	fffe8413          	addi	s0,t4,-1
20005ec2:	008ebeb3          	sltu	t4,t4,s0
20005ec6:	41da0a33          	sub	s4,s4,t4
20005eca:	008a1713          	slli	a4,s4,0x8
20005ece:	008007b7          	lui	a5,0x800
20005ed2:	ea0750e3          	bgez	a4,20005d72 <__subdf3+0xd0>
20005ed6:	fff78a13          	addi	s4,a5,-1 # 7fffff <HeapSize+0x7ff7ff>
20005eda:	547d                	li	s0,-1
20005edc:	8552                	mv	a0,s4
20005ede:	047000ef          	jal	20006724 <__clzsi2>
20005ee2:	ff850713          	addi	a4,a0,-8
20005ee6:	02000793          	li	a5,32
20005eea:	40e786b3          	sub	a3,a5,a4
20005eee:	00d456b3          	srl	a3,s0,a3
20005ef2:	00ea1a33          	sll	s4,s4,a4
20005ef6:	0146e6b3          	or	a3,a3,s4
20005efa:	00e41433          	sll	s0,s0,a4
20005efe:	23574b63          	blt	a4,s5,20006134 <__subdf3+0x492>
20005f02:	41570733          	sub	a4,a4,s5
20005f06:	0705                	addi	a4,a4,1 # 80001 <HeapSize+0x7f801>
20005f08:	8f99                	sub	a5,a5,a4
20005f0a:	00f41633          	sll	a2,s0,a5
20005f0e:	00c03633          	snez	a2,a2
20005f12:	00e45a33          	srl	s4,s0,a4
20005f16:	00f697b3          	sll	a5,a3,a5
20005f1a:	01466633          	or	a2,a2,s4
20005f1e:	00c7e433          	or	s0,a5,a2
20005f22:	00e6da33          	srl	s4,a3,a4
20005f26:	014467b3          	or	a5,s0,s4
20005f2a:	4a81                	li	s5,0
20005f2c:	f78d                	bnez	a5,20005e56 <__subdf3+0x1b4>
20005f2e:	0014f593          	andi	a1,s1,1
20005f32:	4781                	li	a5,0
20005f34:	4701                	li	a4,0
20005f36:	4601                	li	a2,0
20005f38:	bda5                	j	20005db0 <__subdf3+0x10e>
20005f3a:	0016c693          	xori	a3,a3,1
20005f3e:	f2d49ce3          	bne	s1,a3,20005e76 <__subdf3+0x1d4>
20005f42:	16060e63          	beqz	a2,200060be <__subdf3+0x41c>
20005f46:	2c0a9263          	bnez	s5,2000620a <__subdf3+0x568>
20005f4a:	8742                	mv	a4,a6
20005f4c:	01da66b3          	or	a3,s4,t4
20005f50:	52068b63          	beqz	a3,20006486 <__subdf3+0x7e4>
20005f54:	fff70693          	addi	a3,a4,-1
20005f58:	30068163          	beqz	a3,2000625a <__subdf3+0x5b8>
20005f5c:	7ff00613          	li	a2,2047
20005f60:	2ac70563          	beq	a4,a2,2000620a <__subdf3+0x568>
20005f64:	03800613          	li	a2,56
20005f68:	5ad65463          	bge	a2,a3,20006510 <__subdf3+0x86e>
20005f6c:	00879693          	slli	a3,a5,0x8
20005f70:	00800a37          	lui	s4,0x800
20005f74:	8aba                	mv	s5,a4
20005f76:	4401                	li	s0,0
20005f78:	ea06cbe3          	bltz	a3,20005e2e <__subdf3+0x18c>
20005f7c:	00188413          	addi	s0,a7,1 # 10001 <HeapSize+0xf801>
20005f80:	8a3e                	mv	s4,a5
20005f82:	bbc5                	j	20005d72 <__subdf3+0xd0>
20005f84:	001a8713          	addi	a4,s5,1
20005f88:	7fe77713          	andi	a4,a4,2046
20005f8c:	18071163          	bnez	a4,2000610e <__subdf3+0x46c>
20005f90:	0117e633          	or	a2,a5,a7
20005f94:	01da6733          	or	a4,s4,t4
20005f98:	280a9c63          	bnez	s5,20006230 <__subdf3+0x58e>
20005f9c:	46070e63          	beqz	a4,20006418 <__subdf3+0x776>
20005fa0:	14060d63          	beqz	a2,200060fa <__subdf3+0x458>
20005fa4:	411e85b3          	sub	a1,t4,a7
20005fa8:	00beb633          	sltu	a2,t4,a1
20005fac:	40fa0733          	sub	a4,s4,a5
20005fb0:	8f11                	sub	a4,a4,a2
20005fb2:	00871613          	slli	a2,a4,0x8
20005fb6:	52065a63          	bgez	a2,200064ea <__subdf3+0x848>
20005fba:	41d88eb3          	sub	t4,a7,t4
20005fbe:	01d8b8b3          	sltu	a7,a7,t4
20005fc2:	414787b3          	sub	a5,a5,s4
20005fc6:	411787b3          	sub	a5,a5,a7
20005fca:	00fee733          	or	a4,t4,a5
20005fce:	8476                	mv	s0,t4
20005fd0:	84b6                	mv	s1,a3
20005fd2:	df31                	beqz	a4,20005f2e <__subdf3+0x28c>
20005fd4:	00879713          	slli	a4,a5,0x8
20005fd8:	56075163          	bgez	a4,2000653a <__subdf3+0x898>
20005fdc:	ff800737          	lui	a4,0xff800
20005fe0:	177d                	addi	a4,a4,-1 # ff7fffff <__StackTop+0xdf77dfff>
20005fe2:	8f7d                	and	a4,a4,a5
20005fe4:	85b6                	mv	a1,a3
20005fe6:	4785                	li	a5,1
20005fe8:	bb75                	j	20005da4 <__subdf3+0x102>
20005fea:	0c6a8263          	beq	s5,t1,200060ae <__subdf3+0x40c>
20005fee:	03800693          	li	a3,56
20005ff2:	00e6c663          	blt	a3,a4,20005ffe <__subdf3+0x35c>
20005ff6:	008006b7          	lui	a3,0x800
20005ffa:	8fd5                	or	a5,a5,a3
20005ffc:	bbdd                	j	20005df2 <__subdf3+0x150>
20005ffe:	008a1713          	slli	a4,s4,0x8
20006002:	008007b7          	lui	a5,0x800
20006006:	2a075063          	bgez	a4,200062a6 <__subdf3+0x604>
2000600a:	8a3e                	mv	s4,a5
2000600c:	4401                	li	s0,0
2000600e:	b505                	j	20005e2e <__subdf3+0x18c>
20006010:	4701                	li	a4,0
20006012:	4601                	li	a2,0
20006014:	bb71                	j	20005db0 <__subdf3+0x10e>
20006016:	00351413          	slli	s0,a0,0x3
2000601a:	800d                	srli	s0,s0,0x3
2000601c:	01da1613          	slli	a2,s4,0x1d
20006020:	7ff00713          	li	a4,2047
20006024:	8e41                	or	a2,a2,s0
20006026:	003a5793          	srli	a5,s4,0x3
2000602a:	e6ea82e3          	beq	s5,a4,20005e8e <__subdf3+0x1ec>
2000602e:	07b2                	slli	a5,a5,0xc
20006030:	00c7d713          	srli	a4,a5,0xc
20006034:	0014f593          	andi	a1,s1,1
20006038:	7ffaf793          	andi	a5,s5,2047
2000603c:	bb95                	j	20005db0 <__subdf3+0x10e>
2000603e:	84b6                	mv	s1,a3
20006040:	4a85                	li	s5,1
20006042:	0a26                	slli	s4,s4,0x9
20006044:	009a5a13          	srli	s4,s4,0x9
20006048:	e80a1ae3          	bnez	s4,20005edc <__subdf3+0x23a>
2000604c:	8522                	mv	a0,s0
2000604e:	2dd9                	jal	20006724 <__clzsi2>
20006050:	01850713          	addi	a4,a0,24
20006054:	47fd                	li	a5,31
20006056:	e8e7d8e3          	bge	a5,a4,20005ee6 <__subdf3+0x244>
2000605a:	1561                	addi	a0,a0,-8
2000605c:	00a416b3          	sll	a3,s0,a0
20006060:	15574a63          	blt	a4,s5,200061b4 <__subdf3+0x512>
20006064:	41570433          	sub	s0,a4,s5
20006068:	00140713          	addi	a4,s0,1
2000606c:	46e7d463          	bge	a5,a4,200064d4 <__subdf3+0x832>
20006070:	1405                	addi	s0,s0,-31
20006072:	02000793          	li	a5,32
20006076:	0086d433          	srl	s0,a3,s0
2000607a:	00f70a63          	beq	a4,a5,2000608e <__subdf3+0x3ec>
2000607e:	04000793          	li	a5,64
20006082:	8f99                	sub	a5,a5,a4
20006084:	00f697b3          	sll	a5,a3,a5
20006088:	00f037b3          	snez	a5,a5
2000608c:	8c5d                	or	s0,s0,a5
2000608e:	ea0400e3          	beqz	s0,20005f2e <__subdf3+0x28c>
20006092:	00747793          	andi	a5,s0,7
20006096:	4a81                	li	s5,0
20006098:	dc0792e3          	bnez	a5,20005e5c <__subdf3+0x1ba>
2000609c:	4a01                	li	s4,0
2000609e:	800d                	srli	s0,s0,0x3
200060a0:	bfb5                	j	2000601c <__subdf3+0x37a>
200060a2:	0014f593          	andi	a1,s1,1
200060a6:	7ff00793          	li	a5,2047
200060aa:	4701                	li	a4,0
200060ac:	b311                	j	20005db0 <__subdf3+0x10e>
200060ae:	050e                	slli	a0,a0,0x3
200060b0:	810d                	srli	a0,a0,0x3
200060b2:	01da1613          	slli	a2,s4,0x1d
200060b6:	8e49                	or	a2,a2,a0
200060b8:	003a5793          	srli	a5,s4,0x3
200060bc:	bbc9                	j	20005e8e <__subdf3+0x1ec>
200060be:	001a8713          	addi	a4,s5,1
200060c2:	7fe77693          	andi	a3,a4,2046
200060c6:	10069163          	bnez	a3,200061c8 <__subdf3+0x526>
200060ca:	01da6733          	or	a4,s4,t4
200060ce:	3a0a9563          	bnez	s5,20006478 <__subdf3+0x7d6>
200060d2:	0117e6b3          	or	a3,a5,a7
200060d6:	40070463          	beqz	a4,200064de <__subdf3+0x83c>
200060da:	c285                	beqz	a3,200060fa <__subdf3+0x458>
200060dc:	98f6                	add	a7,a7,t4
200060de:	01d8beb3          	sltu	t4,a7,t4
200060e2:	97d2                	add	a5,a5,s4
200060e4:	01d78a33          	add	s4,a5,t4
200060e8:	008a1793          	slli	a5,s4,0x8
200060ec:	8ec6                	mv	t4,a7
200060ee:	4207c363          	bltz	a5,20006514 <__subdf3+0x872>
200060f2:	0148e7b3          	or	a5,a7,s4
200060f6:	e2078ce3          	beqz	a5,20005f2e <__subdf3+0x28c>
200060fa:	003ede93          	srli	t4,t4,0x3
200060fe:	01da1613          	slli	a2,s4,0x1d
20006102:	01d66633          	or	a2,a2,t4
20006106:	003a5793          	srli	a5,s4,0x3
2000610a:	4a81                	li	s5,0
2000610c:	b70d                	j	2000602e <__subdf3+0x38c>
2000610e:	411e8433          	sub	s0,t4,a7
20006112:	008eb633          	sltu	a2,t4,s0
20006116:	40fa0733          	sub	a4,s4,a5
2000611a:	8f11                	sub	a4,a4,a2
2000611c:	00871613          	slli	a2,a4,0x8
20006120:	0e064d63          	bltz	a2,2000621a <__subdf3+0x578>
20006124:	00e46633          	or	a2,s0,a4
20006128:	8a3a                	mv	s4,a4
2000612a:	fe19                	bnez	a2,20006048 <__subdf3+0x3a6>
2000612c:	4581                	li	a1,0
2000612e:	4781                	li	a5,0
20006130:	4701                	li	a4,0
20006132:	b9bd                	j	20005db0 <__subdf3+0x10e>
20006134:	ff800a37          	lui	s4,0xff800
20006138:	1a7d                	addi	s4,s4,-1 # ff7fffff <__StackTop+0xdf77dfff>
2000613a:	00747793          	andi	a5,s0,7
2000613e:	40ea8ab3          	sub	s5,s5,a4
20006142:	0146fa33          	and	s4,a3,s4
20006146:	c20791e3          	bnez	a5,20005d68 <__subdf3+0xc6>
2000614a:	800d                	srli	s0,s0,0x3
2000614c:	bdc1                	j	2000601c <__subdf3+0x37a>
2000614e:	8742                	mv	a4,a6
20006150:	01da6633          	or	a2,s4,t4
20006154:	ca7d                	beqz	a2,2000624a <__subdf3+0x5a8>
20006156:	fff70613          	addi	a2,a4,-1
2000615a:	28060763          	beqz	a2,200063e8 <__subdf3+0x746>
2000615e:	7ff00593          	li	a1,2047
20006162:	d0b70ee3          	beq	a4,a1,20005e7e <__subdf3+0x1dc>
20006166:	03800593          	li	a1,56
2000616a:	32c5de63          	bge	a1,a2,200064a6 <__subdf3+0x804>
2000616e:	fff88413          	addi	s0,a7,-1
20006172:	0088b8b3          	sltu	a7,a7,s0
20006176:	41178a33          	sub	s4,a5,a7
2000617a:	008a1613          	slli	a2,s4,0x8
2000617e:	008007b7          	lui	a5,0x800
20006182:	3a064963          	bltz	a2,20006534 <__subdf3+0x892>
20006186:	84b6                	mv	s1,a3
20006188:	8aba                	mv	s5,a4
2000618a:	b6e5                	j	20005d72 <__subdf3+0xd0>
2000618c:	fe070693          	addi	a3,a4,-32
20006190:	02000613          	li	a2,32
20006194:	00d7d6b3          	srl	a3,a5,a3
20006198:	00c70a63          	beq	a4,a2,200061ac <__subdf3+0x50a>
2000619c:	04000613          	li	a2,64
200061a0:	40e60733          	sub	a4,a2,a4
200061a4:	00e797b3          	sll	a5,a5,a4
200061a8:	00f8e8b3          	or	a7,a7,a5
200061ac:	01103433          	snez	s0,a7
200061b0:	8c55                	or	s0,s0,a3
200061b2:	be69                	j	20005d4c <__subdf3+0xaa>
200061b4:	ff8007b7          	lui	a5,0xff800
200061b8:	17fd                	addi	a5,a5,-1 # ff7fffff <__StackTop+0xdf77dfff>
200061ba:	8ff5                	and	a5,a5,a3
200061bc:	01d79613          	slli	a2,a5,0x1d
200061c0:	40ea8ab3          	sub	s5,s5,a4
200061c4:	838d                	srli	a5,a5,0x3
200061c6:	b5a5                	j	2000602e <__subdf3+0x38c>
200061c8:	7ff00693          	li	a3,2047
200061cc:	2ad70263          	beq	a4,a3,20006470 <__subdf3+0x7ce>
200061d0:	98f6                	add	a7,a7,t4
200061d2:	01d8beb3          	sltu	t4,a7,t4
200061d6:	97d2                	add	a5,a5,s4
200061d8:	97f6                	add	a5,a5,t4
200061da:	0018d893          	srli	a7,a7,0x1
200061de:	01f79413          	slli	s0,a5,0x1f
200061e2:	0078f693          	andi	a3,a7,7
200061e6:	01146433          	or	s0,s0,a7
200061ea:	0017da13          	srli	s4,a5,0x1
200061ee:	34068e63          	beqz	a3,2000654a <__subdf3+0x8a8>
200061f2:	00f47693          	andi	a3,s0,15
200061f6:	4611                	li	a2,4
200061f8:	8aba                	mv	s5,a4
200061fa:	b6c69ce3          	bne	a3,a2,20005d72 <__subdf3+0xd0>
200061fe:	01da1613          	slli	a2,s4,0x1d
20006202:	800d                	srli	s0,s0,0x3
20006204:	8e41                	or	a2,a2,s0
20006206:	8391                	srli	a5,a5,0x4
20006208:	b51d                	j	2000602e <__subdf3+0x38c>
2000620a:	003e1713          	slli	a4,t3,0x3
2000620e:	01d79613          	slli	a2,a5,0x1d
20006212:	830d                	srli	a4,a4,0x3
20006214:	8e59                	or	a2,a2,a4
20006216:	838d                	srli	a5,a5,0x3
20006218:	b99d                	j	20005e8e <__subdf3+0x1ec>
2000621a:	41d88eb3          	sub	t4,a7,t4
2000621e:	01d8b8b3          	sltu	a7,a7,t4
20006222:	414787b3          	sub	a5,a5,s4
20006226:	8476                	mv	s0,t4
20006228:	41178a33          	sub	s4,a5,a7
2000622c:	84b6                	mv	s1,a3
2000622e:	bd29                	j	20006048 <__subdf3+0x3a6>
20006230:	16071d63          	bnez	a4,200063aa <__subdf3+0x708>
20006234:	2c060863          	beqz	a2,20006504 <__subdf3+0x862>
20006238:	003e1613          	slli	a2,t3,0x3
2000623c:	01d79713          	slli	a4,a5,0x1d
20006240:	820d                	srli	a2,a2,0x3
20006242:	84b6                	mv	s1,a3
20006244:	8e59                	or	a2,a2,a4
20006246:	838d                	srli	a5,a5,0x3
20006248:	b199                	j	20005e8e <__subdf3+0x1ec>
2000624a:	003e1613          	slli	a2,t3,0x3
2000624e:	00365413          	srli	s0,a2,0x3
20006252:	84b6                	mv	s1,a3
20006254:	8aba                	mv	s5,a4
20006256:	8a3e                	mv	s4,a5
20006258:	b3d1                	j	2000601c <__subdf3+0x37a>
2000625a:	98f6                	add	a7,a7,t4
2000625c:	01d8beb3          	sltu	t4,a7,t4
20006260:	97d2                	add	a5,a5,s4
20006262:	97f6                	add	a5,a5,t4
20006264:	00879713          	slli	a4,a5,0x8
20006268:	22075663          	bgez	a4,20006494 <__subdf3+0x7f2>
2000626c:	ff800737          	lui	a4,0xff800
20006270:	177d                	addi	a4,a4,-1 # ff7fffff <__StackTop+0xdf77dfff>
20006272:	0018d693          	srli	a3,a7,0x1
20006276:	8ff9                	and	a5,a5,a4
20006278:	01f79713          	slli	a4,a5,0x1f
2000627c:	0076f593          	andi	a1,a3,7
20006280:	8f55                	or	a4,a4,a3
20006282:	0017d613          	srli	a2,a5,0x1
20006286:	26058963          	beqz	a1,200064f8 <__subdf3+0x856>
2000628a:	00f77693          	andi	a3,a4,15
2000628e:	4591                	li	a1,4
20006290:	26b68463          	beq	a3,a1,200064f8 <__subdf3+0x856>
20006294:	00b70433          	add	s0,a4,a1
20006298:	00e43733          	sltu	a4,s0,a4
2000629c:	00c70a33          	add	s4,a4,a2
200062a0:	4a89                	li	s5,2
200062a2:	800d                	srli	s0,s0,0x3
200062a4:	bba5                	j	2000601c <__subdf3+0x37a>
200062a6:	001e8413          	addi	s0,t4,1
200062aa:	b4e1                	j	20005d72 <__subdf3+0xd0>
200062ac:	cc070ce3          	beqz	a4,20005f84 <__subdf3+0x2e2>
200062b0:	41580733          	sub	a4,a6,s5
200062b4:	e80a8ee3          	beqz	s5,20006150 <__subdf3+0x4ae>
200062b8:	03800613          	li	a2,56
200062bc:	08e65063          	bge	a2,a4,2000633c <__subdf3+0x69a>
200062c0:	fff88413          	addi	s0,a7,-1
200062c4:	0088b8b3          	sltu	a7,a7,s0
200062c8:	41178a33          	sub	s4,a5,a7
200062cc:	008a1713          	slli	a4,s4,0x8
200062d0:	008007b7          	lui	a5,0x800
200062d4:	18074863          	bltz	a4,20006464 <__subdf3+0x7c2>
200062d8:	84b6                	mv	s1,a3
200062da:	8ac2                	mv	s5,a6
200062dc:	bc59                	j	20005d72 <__subdf3+0xd0>
200062de:	411e88b3          	sub	a7,t4,a7
200062e2:	40fa07b3          	sub	a5,s4,a5
200062e6:	011ebeb3          	sltu	t4,t4,a7
200062ea:	41d78a33          	sub	s4,a5,t4
200062ee:	008a1793          	slli	a5,s4,0x8
200062f2:	8446                	mv	s0,a7
200062f4:	d407c6e3          	bltz	a5,20006040 <__subdf3+0x39e>
200062f8:	0038d893          	srli	a7,a7,0x3
200062fc:	01da1613          	slli	a2,s4,0x1d
20006300:	00c8e633          	or	a2,a7,a2
20006304:	003a5793          	srli	a5,s4,0x3
20006308:	4a85                	li	s5,1
2000630a:	b315                	j	2000602e <__subdf3+0x38c>
2000630c:	87d6                	mv	a5,s5
2000630e:	4701                	li	a4,0
20006310:	4601                	li	a2,0
20006312:	bc79                	j	20005db0 <__subdf3+0x10e>
20006314:	fe070693          	addi	a3,a4,-32
20006318:	02000613          	li	a2,32
2000631c:	00d7d6b3          	srl	a3,a5,a3
20006320:	00c70a63          	beq	a4,a2,20006334 <__subdf3+0x692>
20006324:	04000613          	li	a2,64
20006328:	40e60733          	sub	a4,a2,a4
2000632c:	00e797b3          	sll	a5,a5,a4
20006330:	00f8e8b3          	or	a7,a7,a5
20006334:	011037b3          	snez	a5,a7
20006338:	8fd5                	or	a5,a5,a3
2000633a:	b4cd                	j	20005e1c <__subdf3+0x17a>
2000633c:	00800637          	lui	a2,0x800
20006340:	84b6                	mv	s1,a3
20006342:	00ca6a33          	or	s4,s4,a2
20006346:	46fd                	li	a3,31
20006348:	06e6cc63          	blt	a3,a4,200063c0 <__subdf3+0x71e>
2000634c:	02000693          	li	a3,32
20006350:	8e99                	sub	a3,a3,a4
20006352:	00da1433          	sll	s0,s4,a3
20006356:	00de96b3          	sll	a3,t4,a3
2000635a:	00eedeb3          	srl	t4,t4,a4
2000635e:	00d036b3          	snez	a3,a3
20006362:	01d46433          	or	s0,s0,t4
20006366:	00ea5733          	srl	a4,s4,a4
2000636a:	8c55                	or	s0,s0,a3
2000636c:	8f99                	sub	a5,a5,a4
2000636e:	40888433          	sub	s0,a7,s0
20006372:	0088b8b3          	sltu	a7,a7,s0
20006376:	41178a33          	sub	s4,a5,a7
2000637a:	8ac2                	mv	s5,a6
2000637c:	baf1                	j	20005d58 <__subdf3+0xb6>
2000637e:	d40700e3          	beqz	a4,200060be <__subdf3+0x41c>
20006382:	41580733          	sub	a4,a6,s5
20006386:	bc0a83e3          	beqz	s5,20005f4c <__subdf3+0x2aa>
2000638a:	03800693          	li	a3,56
2000638e:	08e6db63          	bge	a3,a4,20006424 <__subdf3+0x782>
20006392:	00879713          	slli	a4,a5,0x8
20006396:	00800a37          	lui	s4,0x800
2000639a:	8ac2                	mv	s5,a6
2000639c:	4401                	li	s0,0
2000639e:	a80748e3          	bltz	a4,20005e2e <__subdf3+0x18c>
200063a2:	00188413          	addi	s0,a7,1
200063a6:	8a3e                	mv	s4,a5
200063a8:	b2e9                	j	20005d72 <__subdf3+0xd0>
200063aa:	ae0615e3          	bnez	a2,20005e94 <__subdf3+0x1f2>
200063ae:	00351793          	slli	a5,a0,0x3
200063b2:	838d                	srli	a5,a5,0x3
200063b4:	01da1613          	slli	a2,s4,0x1d
200063b8:	8e5d                	or	a2,a2,a5
200063ba:	003a5793          	srli	a5,s4,0x3
200063be:	bcc1                	j	20005e8e <__subdf3+0x1ec>
200063c0:	fe070693          	addi	a3,a4,-32
200063c4:	02000613          	li	a2,32
200063c8:	00da56b3          	srl	a3,s4,a3
200063cc:	00c70a63          	beq	a4,a2,200063e0 <__subdf3+0x73e>
200063d0:	04000613          	li	a2,64
200063d4:	40e60733          	sub	a4,a2,a4
200063d8:	00ea1733          	sll	a4,s4,a4
200063dc:	00eeeeb3          	or	t4,t4,a4
200063e0:	01d03433          	snez	s0,t4
200063e4:	8c55                	or	s0,s0,a3
200063e6:	b761                	j	2000636e <__subdf3+0x6cc>
200063e8:	41d88eb3          	sub	t4,a7,t4
200063ec:	414787b3          	sub	a5,a5,s4
200063f0:	01d8b8b3          	sltu	a7,a7,t4
200063f4:	41178a33          	sub	s4,a5,a7
200063f8:	008a1793          	slli	a5,s4,0x8
200063fc:	8476                	mv	s0,t4
200063fe:	c407c0e3          	bltz	a5,2000603e <__subdf3+0x39c>
20006402:	003ede93          	srli	t4,t4,0x3
20006406:	01da1613          	slli	a2,s4,0x1d
2000640a:	84b6                	mv	s1,a3
2000640c:	01d66633          	or	a2,a2,t4
20006410:	003a5793          	srli	a5,s4,0x3
20006414:	4a85                	li	s5,1
20006416:	b921                	j	2000602e <__subdf3+0x38c>
20006418:	d0060ae3          	beqz	a2,2000612c <__subdf3+0x48a>
2000641c:	8a3e                	mv	s4,a5
2000641e:	8ec6                	mv	t4,a7
20006420:	84b6                	mv	s1,a3
20006422:	b9e1                	j	200060fa <__subdf3+0x458>
20006424:	008006b7          	lui	a3,0x800
20006428:	00da6a33          	or	s4,s4,a3
2000642c:	46fd                	li	a3,31
2000642e:	06e6cf63          	blt	a3,a4,200064ac <__subdf3+0x80a>
20006432:	02000613          	li	a2,32
20006436:	8e19                	sub	a2,a2,a4
20006438:	00ca16b3          	sll	a3,s4,a2
2000643c:	00ce9633          	sll	a2,t4,a2
20006440:	00eedeb3          	srl	t4,t4,a4
20006444:	00c03633          	snez	a2,a2
20006448:	01d6e6b3          	or	a3,a3,t4
2000644c:	00ea5733          	srl	a4,s4,a4
20006450:	8ed1                	or	a3,a3,a2
20006452:	97ba                	add	a5,a5,a4
20006454:	98b6                	add	a7,a7,a3
20006456:	00d8b6b3          	sltu	a3,a7,a3
2000645a:	00f68a33          	add	s4,a3,a5
2000645e:	8446                	mv	s0,a7
20006460:	8ac2                	mv	s5,a6
20006462:	b2d1                	j	20005e26 <__subdf3+0x184>
20006464:	8ac2                	mv	s5,a6
20006466:	84b6                	mv	s1,a3
20006468:	fff78a13          	addi	s4,a5,-1 # 7fffff <HeapSize+0x7ff7ff>
2000646c:	547d                	li	s0,-1
2000646e:	b4bd                	j	20005edc <__subdf3+0x23a>
20006470:	87ba                	mv	a5,a4
20006472:	4601                	li	a2,0
20006474:	4701                	li	a4,0
20006476:	ba2d                	j	20005db0 <__subdf3+0x10e>
20006478:	d80709e3          	beqz	a4,2000620a <__subdf3+0x568>
2000647c:	0117e8b3          	or	a7,a5,a7
20006480:	a0089ae3          	bnez	a7,20005e94 <__subdf3+0x1f2>
20006484:	b72d                	j	200063ae <__subdf3+0x70c>
20006486:	003e1613          	slli	a2,t3,0x3
2000648a:	00365413          	srli	s0,a2,0x3
2000648e:	8aba                	mv	s5,a4
20006490:	8a3e                	mv	s4,a5
20006492:	b669                	j	2000601c <__subdf3+0x37a>
20006494:	01d79613          	slli	a2,a5,0x1d
20006498:	0038d893          	srli	a7,a7,0x3
2000649c:	01166633          	or	a2,a2,a7
200064a0:	838d                	srli	a5,a5,0x3
200064a2:	4a85                	li	s5,1
200064a4:	b669                	j	2000602e <__subdf3+0x38c>
200064a6:	84b6                	mv	s1,a3
200064a8:	8732                	mv	a4,a2
200064aa:	bd71                	j	20006346 <__subdf3+0x6a4>
200064ac:	fe070613          	addi	a2,a4,-32
200064b0:	02000693          	li	a3,32
200064b4:	00ca5633          	srl	a2,s4,a2
200064b8:	00d70a63          	beq	a4,a3,200064cc <__subdf3+0x82a>
200064bc:	04000693          	li	a3,64
200064c0:	40e68733          	sub	a4,a3,a4
200064c4:	00ea1733          	sll	a4,s4,a4
200064c8:	00eeeeb3          	or	t4,t4,a4
200064cc:	01d036b3          	snez	a3,t4
200064d0:	8ed1                	or	a3,a3,a2
200064d2:	b749                	j	20006454 <__subdf3+0x7b2>
200064d4:	02000793          	li	a5,32
200064d8:	8f99                	sub	a5,a5,a4
200064da:	4601                	li	a2,0
200064dc:	bc2d                	j	20005f16 <__subdf3+0x274>
200064de:	a40688e3          	beqz	a3,20005f2e <__subdf3+0x28c>
200064e2:	8446                	mv	s0,a7
200064e4:	8a3e                	mv	s4,a5
200064e6:	800d                	srli	s0,s0,0x3
200064e8:	be15                	j	2000601c <__subdf3+0x37a>
200064ea:	00e5e633          	or	a2,a1,a4
200064ee:	c2060fe3          	beqz	a2,2000612c <__subdf3+0x48a>
200064f2:	8a3a                	mv	s4,a4
200064f4:	8eae                	mv	t4,a1
200064f6:	b111                	j	200060fa <__subdf3+0x458>
200064f8:	830d                	srli	a4,a4,0x3
200064fa:	0676                	slli	a2,a2,0x1d
200064fc:	8e59                	or	a2,a2,a4
200064fe:	8391                	srli	a5,a5,0x4
20006500:	4a89                	li	s5,2
20006502:	b635                	j	2000602e <__subdf3+0x38c>
20006504:	4581                	li	a1,0
20006506:	7ff00793          	li	a5,2047
2000650a:	00080737          	lui	a4,0x80
2000650e:	b04d                	j	20005db0 <__subdf3+0x10e>
20006510:	8736                	mv	a4,a3
20006512:	bf29                	j	2000642c <__subdf3+0x78a>
20006514:	ff8007b7          	lui	a5,0xff800
20006518:	17fd                	addi	a5,a5,-1 # ff7fffff <__StackTop+0xdf77dfff>
2000651a:	00fa77b3          	and	a5,s4,a5
2000651e:	01d79613          	slli	a2,a5,0x1d
20006522:	0038de93          	srli	t4,a7,0x3
20006526:	07a6                	slli	a5,a5,0x9
20006528:	00c7d713          	srli	a4,a5,0xc
2000652c:	01d66633          	or	a2,a2,t4
20006530:	4785                	li	a5,1
20006532:	b8bd                	j	20005db0 <__subdf3+0x10e>
20006534:	8aba                	mv	s5,a4
20006536:	84b6                	mv	s1,a3
20006538:	ba79                	j	20005ed6 <__subdf3+0x234>
2000653a:	01d79613          	slli	a2,a5,0x1d
2000653e:	003ede93          	srli	t4,t4,0x3
20006542:	01d66633          	or	a2,a2,t4
20006546:	838d                	srli	a5,a5,0x3
20006548:	b4dd                	j	2000602e <__subdf3+0x38c>
2000654a:	800d                	srli	s0,s0,0x3
2000654c:	01da1613          	slli	a2,s4,0x1d
20006550:	8e41                	or	a2,a2,s0
20006552:	8391                	srli	a5,a5,0x4
20006554:	8aba                	mv	s5,a4
20006556:	bce1                	j	2000602e <__subdf3+0x38c>

20006558 <__unorddf2>:
20006558:	0145d713          	srli	a4,a1,0x14
2000655c:	001007b7          	lui	a5,0x100
20006560:	17fd                	addi	a5,a5,-1 # fffff <HeapSize+0xff7ff>
20006562:	fff74713          	not	a4,a4
20006566:	0146d813          	srli	a6,a3,0x14
2000656a:	8dfd                	and	a1,a1,a5
2000656c:	8ff5                	and	a5,a5,a3
2000656e:	01571693          	slli	a3,a4,0x15
20006572:	7ff87813          	andi	a6,a6,2047
20006576:	ca99                	beqz	a3,2000658c <__unorddf2+0x34>
20006578:	7ff00713          	li	a4,2047
2000657c:	4501                	li	a0,0
2000657e:	00e80363          	beq	a6,a4,20006584 <__unorddf2+0x2c>
20006582:	8082                	ret
20006584:	8fd1                	or	a5,a5,a2
20006586:	00f03533          	snez	a0,a5
2000658a:	8082                	ret
2000658c:	8dc9                	or	a1,a1,a0
2000658e:	4505                	li	a0,1
20006590:	d5e5                	beqz	a1,20006578 <__unorddf2+0x20>
20006592:	8082                	ret

20006594 <__fixdfsi>:
20006594:	0145d793          	srli	a5,a1,0x14
20006598:	001006b7          	lui	a3,0x100
2000659c:	fff68713          	addi	a4,a3,-1 # fffff <HeapSize+0xff7ff>
200065a0:	7ff7f793          	andi	a5,a5,2047
200065a4:	3fe00613          	li	a2,1022
200065a8:	8f6d                	and	a4,a4,a1
200065aa:	81fd                	srli	a1,a1,0x1f
200065ac:	00f65b63          	bge	a2,a5,200065c2 <__fixdfsi+0x2e>
200065b0:	41d00613          	li	a2,1053
200065b4:	00f65963          	bge	a2,a5,200065c6 <__fixdfsi+0x32>
200065b8:	80000537          	lui	a0,0x80000
200065bc:	157d                	addi	a0,a0,-1 # 7fffffff <__StackTop+0x5ff7dfff>
200065be:	952e                	add	a0,a0,a1
200065c0:	8082                	ret
200065c2:	4501                	li	a0,0
200065c4:	8082                	ret
200065c6:	43300613          	li	a2,1075
200065ca:	8e1d                	sub	a2,a2,a5
200065cc:	487d                	li	a6,31
200065ce:	8f55                	or	a4,a4,a3
200065d0:	00c85d63          	bge	a6,a2,200065ea <__fixdfsi+0x56>
200065d4:	41300693          	li	a3,1043
200065d8:	40f687b3          	sub	a5,a3,a5
200065dc:	00f75733          	srl	a4,a4,a5
200065e0:	40e00533          	neg	a0,a4
200065e4:	f1e5                	bnez	a1,200065c4 <__fixdfsi+0x30>
200065e6:	853a                	mv	a0,a4
200065e8:	8082                	ret
200065ea:	bed78793          	addi	a5,a5,-1043
200065ee:	00f71733          	sll	a4,a4,a5
200065f2:	00c55533          	srl	a0,a0,a2
200065f6:	8f49                	or	a4,a4,a0
200065f8:	b7e5                	j	200065e0 <__fixdfsi+0x4c>

200065fa <__fixunsdfsi>:
200065fa:	0145d793          	srli	a5,a1,0x14
200065fe:	00100637          	lui	a2,0x100
20006602:	fff60713          	addi	a4,a2,-1 # fffff <HeapSize+0xff7ff>
20006606:	7ff7f793          	andi	a5,a5,2047
2000660a:	3fe00813          	li	a6,1022
2000660e:	86aa                	mv	a3,a0
20006610:	8f6d                	and	a4,a4,a1
20006612:	4501                	li	a0,0
20006614:	81fd                	srli	a1,a1,0x1f
20006616:	00f85363          	bge	a6,a5,2000661c <__fixunsdfsi+0x22>
2000661a:	c191                	beqz	a1,2000661e <__fixunsdfsi+0x24>
2000661c:	8082                	ret
2000661e:	41e00593          	li	a1,1054
20006622:	557d                	li	a0,-1
20006624:	fef5cce3          	blt	a1,a5,2000661c <__fixunsdfsi+0x22>
20006628:	43300593          	li	a1,1075
2000662c:	8d9d                	sub	a1,a1,a5
2000662e:	457d                	li	a0,31
20006630:	8f51                	or	a4,a4,a2
20006632:	00b54a63          	blt	a0,a1,20006646 <__fixunsdfsi+0x4c>
20006636:	bed78793          	addi	a5,a5,-1043
2000663a:	00f71733          	sll	a4,a4,a5
2000663e:	00b6d533          	srl	a0,a3,a1
20006642:	8d59                	or	a0,a0,a4
20006644:	8082                	ret
20006646:	41300513          	li	a0,1043
2000664a:	8d1d                	sub	a0,a0,a5
2000664c:	00a75533          	srl	a0,a4,a0
20006650:	8082                	ret

20006652 <__floatsidf>:
20006652:	1101                	addi	sp,sp,-32
20006654:	ce06                	sw	ra,28(sp)
20006656:	cc22                	sw	s0,24(sp)
20006658:	ca26                	sw	s1,20(sp)
2000665a:	c84a                	sw	s2,16(sp)
2000665c:	c64e                	sw	s3,12(sp)
2000665e:	cd0d                	beqz	a0,20006698 <__floatsidf+0x46>
20006660:	41f55713          	srai	a4,a0,0x1f
20006664:	00a744b3          	xor	s1,a4,a0
20006668:	8c99                	sub	s1,s1,a4
2000666a:	87aa                	mv	a5,a0
2000666c:	8526                	mv	a0,s1
2000666e:	01f7d413          	srli	s0,a5,0x1f
20006672:	284d                	jal	20006724 <__clzsi2>
20006674:	41e00793          	li	a5,1054
20006678:	8f89                	sub	a5,a5,a0
2000667a:	4729                	li	a4,10
2000667c:	7ff7f793          	andi	a5,a5,2047
20006680:	02a74d63          	blt	a4,a0,200066ba <__floatsidf+0x68>
20006684:	472d                	li	a4,11
20006686:	8f09                	sub	a4,a4,a0
20006688:	00e4d733          	srl	a4,s1,a4
2000668c:	0732                	slli	a4,a4,0xc
2000668e:	0555                	addi	a0,a0,21
20006690:	8331                	srli	a4,a4,0xc
20006692:	00a494b3          	sll	s1,s1,a0
20006696:	a029                	j	200066a0 <__floatsidf+0x4e>
20006698:	4401                	li	s0,0
2000669a:	4781                	li	a5,0
2000669c:	4701                	li	a4,0
2000669e:	4481                	li	s1,0
200066a0:	07d2                	slli	a5,a5,0x14
200066a2:	047e                	slli	s0,s0,0x1f
200066a4:	8fd9                	or	a5,a5,a4
200066a6:	40f2                	lw	ra,28(sp)
200066a8:	8fc1                	or	a5,a5,s0
200066aa:	4462                	lw	s0,24(sp)
200066ac:	4942                	lw	s2,16(sp)
200066ae:	49b2                	lw	s3,12(sp)
200066b0:	8526                	mv	a0,s1
200066b2:	85be                	mv	a1,a5
200066b4:	44d2                	lw	s1,20(sp)
200066b6:	6105                	addi	sp,sp,32
200066b8:	8082                	ret
200066ba:	1555                	addi	a0,a0,-11
200066bc:	00a49733          	sll	a4,s1,a0
200066c0:	0732                	slli	a4,a4,0xc
200066c2:	8331                	srli	a4,a4,0xc
200066c4:	4481                	li	s1,0
200066c6:	bfe9                	j	200066a0 <__floatsidf+0x4e>

200066c8 <__floatunsidf>:
200066c8:	1141                	addi	sp,sp,-16
200066ca:	c422                	sw	s0,8(sp)
200066cc:	c606                	sw	ra,12(sp)
200066ce:	c24a                	sw	s2,4(sp)
200066d0:	c04e                	sw	s3,0(sp)
200066d2:	842a                	mv	s0,a0
200066d4:	c50d                	beqz	a0,200066fe <__floatunsidf+0x36>
200066d6:	20b9                	jal	20006724 <__clzsi2>
200066d8:	41e00793          	li	a5,1054
200066dc:	8f89                	sub	a5,a5,a0
200066de:	4729                	li	a4,10
200066e0:	7ff7f793          	andi	a5,a5,2047
200066e4:	02a74963          	blt	a4,a0,20006716 <__floatunsidf+0x4e>
200066e8:	472d                	li	a4,11
200066ea:	8f09                	sub	a4,a4,a0
200066ec:	00e45733          	srl	a4,s0,a4
200066f0:	0732                	slli	a4,a4,0xc
200066f2:	01550693          	addi	a3,a0,21
200066f6:	8331                	srli	a4,a4,0xc
200066f8:	00d41433          	sll	s0,s0,a3
200066fc:	a019                	j	20006702 <__floatunsidf+0x3a>
200066fe:	4781                	li	a5,0
20006700:	4701                	li	a4,0
20006702:	40b2                	lw	ra,12(sp)
20006704:	8522                	mv	a0,s0
20006706:	4422                	lw	s0,8(sp)
20006708:	07d2                	slli	a5,a5,0x14
2000670a:	8fd9                	or	a5,a5,a4
2000670c:	4912                	lw	s2,4(sp)
2000670e:	4982                	lw	s3,0(sp)
20006710:	85be                	mv	a1,a5
20006712:	0141                	addi	sp,sp,16
20006714:	8082                	ret
20006716:	1555                	addi	a0,a0,-11
20006718:	00a41733          	sll	a4,s0,a0
2000671c:	0732                	slli	a4,a4,0xc
2000671e:	8331                	srli	a4,a4,0xc
20006720:	4401                	li	s0,0
20006722:	b7c5                	j	20006702 <__floatunsidf+0x3a>

20006724 <__clzsi2>:
20006724:	67c1                	lui	a5,0x10
20006726:	02f57663          	bgeu	a0,a5,20006752 <__clzsi2+0x2e>
2000672a:	10053713          	sltiu	a4,a0,256
2000672e:	00173713          	seqz	a4,a4
20006732:	070e                	slli	a4,a4,0x3
20006734:	200077b7          	lui	a5,0x20007
20006738:	00e55533          	srl	a0,a0,a4
2000673c:	c8c78793          	addi	a5,a5,-884 # 20006c8c <__clz_tab>
20006740:	97aa                	add	a5,a5,a0
20006742:	0007c503          	lbu	a0,0(a5)
20006746:	02000693          	li	a3,32
2000674a:	8e99                	sub	a3,a3,a4
2000674c:	40a68533          	sub	a0,a3,a0
20006750:	8082                	ret
20006752:	010007b7          	lui	a5,0x1000
20006756:	02f57063          	bgeu	a0,a5,20006776 <__clzsi2+0x52>
2000675a:	46c1                	li	a3,16
2000675c:	8736                	mv	a4,a3
2000675e:	200077b7          	lui	a5,0x20007
20006762:	00e55533          	srl	a0,a0,a4
20006766:	c8c78793          	addi	a5,a5,-884 # 20006c8c <__clz_tab>
2000676a:	97aa                	add	a5,a5,a0
2000676c:	0007c503          	lbu	a0,0(a5)
20006770:	40a68533          	sub	a0,a3,a0
20006774:	8082                	ret
20006776:	4761                	li	a4,24
20006778:	200077b7          	lui	a5,0x20007
2000677c:	00e55533          	srl	a0,a0,a4
20006780:	c8c78793          	addi	a5,a5,-884 # 20006c8c <__clz_tab>
20006784:	97aa                	add	a5,a5,a0
20006786:	0007c503          	lbu	a0,0(a5)
2000678a:	46a1                	li	a3,8
2000678c:	40a68533          	sub	a0,a3,a0
20006790:	8082                	ret

20006792 <strlen>:
20006792:	00357793          	andi	a5,a0,3
20006796:	872a                	mv	a4,a0
20006798:	ef9d                	bnez	a5,200067d6 <strlen+0x44>
2000679a:	7f7f86b7          	lui	a3,0x7f7f8
2000679e:	f7f68693          	addi	a3,a3,-129 # 7f7f7f7f <__StackTop+0x5f775f7f>
200067a2:	55fd                	li	a1,-1
200067a4:	4310                	lw	a2,0(a4)
200067a6:	0711                	addi	a4,a4,4 # 80004 <HeapSize+0x7f804>
200067a8:	00d677b3          	and	a5,a2,a3
200067ac:	97b6                	add	a5,a5,a3
200067ae:	8fd1                	or	a5,a5,a2
200067b0:	8fd5                	or	a5,a5,a3
200067b2:	feb789e3          	beq	a5,a1,200067a4 <strlen+0x12>
200067b6:	ffc74683          	lbu	a3,-4(a4)
200067ba:	40a707b3          	sub	a5,a4,a0
200067be:	ca8d                	beqz	a3,200067f0 <strlen+0x5e>
200067c0:	ffd74683          	lbu	a3,-3(a4)
200067c4:	c29d                	beqz	a3,200067ea <strlen+0x58>
200067c6:	ffe74503          	lbu	a0,-2(a4)
200067ca:	00a03533          	snez	a0,a0
200067ce:	953e                	add	a0,a0,a5
200067d0:	1579                	addi	a0,a0,-2
200067d2:	8082                	ret
200067d4:	d2f9                	beqz	a3,2000679a <strlen+0x8>
200067d6:	00074783          	lbu	a5,0(a4)
200067da:	0705                	addi	a4,a4,1
200067dc:	00377693          	andi	a3,a4,3
200067e0:	fbf5                	bnez	a5,200067d4 <strlen+0x42>
200067e2:	8f09                	sub	a4,a4,a0
200067e4:	fff70513          	addi	a0,a4,-1
200067e8:	8082                	ret
200067ea:	ffd78513          	addi	a0,a5,-3
200067ee:	8082                	ret
200067f0:	ffc78513          	addi	a0,a5,-4
200067f4:	8082                	ret
	...
